Pro*COBOL: Release 9.2.0.1.0 - Production on  May 1 11:16:46 2000

Copyright (c) 1982, 2002, Oracle Corporation.  All rights reserved.

t@C: C:\COB97\SOC\COBIS420\COBIS420.PCOI[v
     1  000010******************************************************************
     2  000020*         CP(A)                                     *
     3  000030*      1. vO  : ]pڍs             *
     4  000040*      2. vOID  : COBIS420                                    *
     5  000050*      3. Tv      :DB.{ADB.ׂ       
     6  000051*                         _mnEă[XR[h            
     7  000052*                         KEYƂAJOINŎw                     
     8  000053*                         DB.׏̌         
     9  000054*                         ڍsڑΔ\̈ڍsQ      
    10  000070*                                                                *
    11  000080*      4. 쐬        :                                  *
    12  000090*      5. 쐬        : 2005.4.2                               *
    13  000100******************************************************************
    14  000110*                                                                *
    15  000120******************************************************************
    16  000130*    hcdmshehb`shnm  chuhrhnm              *
    17  000140******************************************************************
    18  000150 IDENTIFICATION                       DIVISION.                   
    19  000160*                                                                 
    20  000170 PROGRAM-ID.                          COBIS420.                   
    21  000180******************************************************************
    22  000190*    dmuhqnmldms        chuhrhnm              *
    23  000200******************************************************************
    24  000210 ENVIRONMENT                          DIVISION.                   
    25  000220******************************************************************
    26  000230*    INPUT-OUTPUT                     SECTION                    *
    27  000240******************************************************************
    28  000250 INPUT-OUTPUT                          SECTION.                   
    29  000260*                                                                 
    30  000270 FILE-CONTROL.                                                    
    31  000280     SELECT  oJt@C              ASSIGN     TO       U11    
    32  000290     FILE    STATUS         IS         v|                   
    33  000300     ORGANIZATION           IS         LINE        SEQUENTIAL.    
    34  000310     SELECT  ̓t@C              ASSIGN     TO       U01    
    35  000320     FILE    STATUS         IS         v|                   
    36  000330     ORGANIZATION           IS         LINE        SEQUENTIAL.    
    37  000340******************************************************************
    38  000350*    c`s`                      chuhrhnm              *
    39  000360******************************************************************
    40  000370 DATA                                 DIVISION.                   
    41  000380******************************************************************
    42  000390*            oJt@C                                        *
    43  000400******************************************************************
    44  000410 FILE                                 SECTION.                    
    45  000420 FD    oJt@C                                               
    46  000430      LABEL    RECORD     IS          STANDARD                    
    47  000440      BLOCK   CONTAINS    0           RECORDS.                    
    48  000450 01  oJ[R[h.                                              
    49  000460    COPY   CISUF421   REPLACING   ==()==  BY  ==oJ[==.         
    50  000470 FD    ̓t@C                                               
    51  000480      LABEL    RECORD     IS          STANDARD                    
    52  000490      BLOCK   CONTAINS    0           RECORDS.                    
    53  000500 01  ́[R[h.                                              
    54  000510     COPY  CISPF001   REPLACING   ==()==  BY  ==́[==.         
    55  000520*                                                                 
    56  000530                                                                  
    57  000540******************************************************************
    58  000550*  vnqjhmf|rsnq`fd  rdbshnm                *
    59  000560******************************************************************
    60  000570  WORKING-STORAGE                     SECTION.                    
    61  000580*----------------------------------------------------------------*
Pro*COBOL: Release 9.2.0.1.0 - Production on  May 1 11:16:46 2000

Copyright (c) 1982, 2002, Oracle Corporation.  All rights reserved.

    62  000590*    zXgϐ`GA                                        *
    63  000600*----------------------------------------------------------------*
    64  000610     EXEC  SQL  BEGIN  DECLARE        SECTION  END-EXEC.          
    65  000620*--<L[GA >                                                  
    66  000630 01   vr|L[.                                                 
    67  000640     03  vr|mdvL[.                                        
    68  000650         05  vr|mdv|_ԍ         PIC  X(09).           
    69  000660         05  vr|mdv|ă[X     PIC  9(02).           
    70  000670         05  vr|mdv|_         PIC  X(03).           
    71  000680     03  vr|nkcL[.                                        
    72  000690         05  vr|nkc|_ԍ         PIC  X(09).           
    73  000700         05  vr|nkc|ă[X     PIC  9(02).           
    74  000710         05  vr|nkc|_         PIC  X(03).           
    75  000720*--<A>                                                         
    76  000730 01   vr|A                         PIC 9(03) VALUE 0.       
    77  000740*--<>                                                         
    78  000750 01   vr|                         PIC S9(02).              
    79  000760 01   vr|.                                       
    80  000770      03  vr|I                     PIC 9(02).               
    81  000780      03  vr|N                   PIC 9(06).               
    82  000781 01   vr|N                         PIC 9(04).               
    83  000790 01   vr|[XJn.                                         
    84  000800      03  vr|JnI               PIC 9(02).               
    85  000810      03  vr|JnN             PIC 9(06).               
    86  000811 01   vr|NP                       PIC 9(04).               
    87  000820 01   vr|f[^쐬.                                     
    88  000830      03  vr|f[^쐬|I   PIC 9(02).               
    89  000840      03  vr|f[^쐬|N PIC 9(06).               
    90  000850 01   vr|\.                                         
    91  000860      03   vr|\|I      PIC 9(01).               
    92  000870      03   vr|\|N    PIC 9(06).               
    93  000880 01   vr|sdlo                 PIC 9(01).               
    94  000890 01   vr|sσtO           PIC X(01).               
    95  000900 01   vr|R[h               PIC X(03).               
    96  000910 01   vr|                       PIC 9(08).               
    97  000920 01   vr|_mn                 PIC X(09).               
    98  000930 01   vr|                           PIC 9(02).               
    99  000940 01   vr|Jn                       PIC 9(02).               
   100  000950 01   vr|R[h               PIC X(01).               
   101  000951 01   vr|tO                       PIC 9(01).               
   102  000960*                                                                 
   103  000970*--< nq`bkdʕϐ >                                       
   104  000980     EXEC  SQL  INCLUDE  SQLCOM.CBL            END-EXEC.          
   105  000990*                                                                 
   106  001000*--< nq`bkd  rpks >                               
t@C: Z:\COB97\COPYLIB_DB\SQLCOM.CBLI[v
     1  000010*--rpkʕϐ
     2  000030   01  SQLSTATE                      PIC  X(005).
     3  000040   01  DB-STRING                     PIC  X(020).
     4  000050   01  USERNAME                      PIC  X(010).
     5  000060   01  PASSWD                        PIC  X(010).
     6  000070*
t@C: Z:\COB97\COPYLIB_DB\SQLCOM.CBLN[Y
   107  001010     EXEC  SQL  INCLUDE  SQLCA.COB             END-EXEC.          
   108  001020*                                                                 
   109  001030*--< {>                                                    
   110  001040     EXEC  SQL  INCLUDE  LTRSMK.CBL            END-EXEC.          
   111  001050*                                                                 
   112  001060*--<׏>                                                 
t@C: Z:\COB97\COPYLIB_DB\LTRSMK.CBLI[v
     1  000010************************************************
     2  000020* i{j(LTRSMK)
Pro*COBOL: Release 9.2.0.1.0 - Production on  May 1 11:16:46 2000

Copyright (c) 1982, 2002, Oracle Corporation.  All rights reserved.

     3  000030************************************************
     4  000040 01  ksqrlj|_mn PIC  X(010).
     5  000050 01  ksqrlj|ă[XR[h PIC S9(001) COMP-3.
     6  000060 01  ksqrlj|ƏR[h PIC S9(004) COMP-3.
     7  000070 01  ksqrlj|S҃R[h PIC S9(004) COMP-3.
     8  000080 01  ksqrlj|_|zP PIC S9(013) COMP-3.
     9  000090 01  ksqrlj|_|_zP PIC S9(013) COMP-3.
    10  000100 01  ksqrlj|_|zQ PIC S9(013) COMP-3.
    11  000110 01  ksqrlj|_|_zQ PIC S9(013) COMP-3.
    12  000120 01  ksqrlj|_|zR PIC S9(013) COMP-3.
    13  000130 01  ksqrlj|_|_zR PIC S9(013) COMP-3.
    14  000140 01  ksqrlj|_|zS PIC S9(013) COMP-3.
    15  000150 01  ksqrlj|_|_zS PIC S9(013) COMP-3.
    16  000160 01  ksqrlj|_|zT PIC S9(013) COMP-3.
    17  000170 01  ksqrlj|_|_zT PIC S9(013) COMP-3.
    18  000180 01  ksqrlj|_|zU PIC S9(013) COMP-3.
    19  000190 01  ksqrlj|_|_zU PIC S9(013) COMP-3.
    20  000200 01  ksqrlj|_|zV PIC S9(013) COMP-3.
    21  000210 01  ksqrlj|_|_zV PIC S9(013) COMP-3.
    22  000220 01  ksqrlj|_|zW PIC S9(013) COMP-3.
    23  000230 01  ksqrlj|_|_zW PIC S9(013) COMP-3.
    24  000240 01  ksqrlj|_|zX PIC S9(013) COMP-3.
    25  000250 01  ksqrlj|_|_zX PIC S9(013) COMP-3.
    26  000260 01  ksqrlj|_|zPO PIC S9(013) COMP-3.
    27  000270 01  ksqrlj|_|_zPO PIC S9(013) COMP-3.
    28  000280 01  ksqrlj|菈R[h PIC S9(002) COMP-3.
    29  000290 01  ksqrlj|S|I PIC S9(001) COMP-3.
    30  000300 01  ksqrlj|S|N PIC  X(006).
    31  000310 01  ksqrlj|SN|I PIC S9(001) COMP-3.
    32  000320 01  ksqrlj|SN|N PIC  X(004).
    33  000330 01  ksqrlj|_mn PIC  X(010).
    34  000340 01  ksqrlj|V_mn PIC  X(010).
    35  000350 01  ksqrlj|R[hV[PXP PIC S9(001) COMP-3.
    36  000360 01  ksqrlj|R[hV[PXQ PIC S9(001) COMP-3.
    37  000370 01  ksqrlj|R[hV[PXR PIC S9(001) COMP-3.
    38  000380 01  ksqrlj|R[hV[PXS PIC S9(001) COMP-3.
    39  000390 01  ksqrlj|R[hV[PXT PIC S9(001) COMP-3.
    40  000400 01  ksqrlj|R[hV[PXU PIC S9(001) COMP-3.
    41  000410 01  ksqrlj|R[hV[PXV PIC S9(001) COMP-3.
    42  000420 01  ksqrlj|R[hV[PXW PIC S9(001) COMP-3.
    43  000430 01  ksqrlj|R[hV[PXX PIC S9(001) COMP-3.
    44  000440 01  ksqrlj|R[hV[PXPO PIC S9(001) COMP-3.
    45  000450 01  ksqrlj|_~[OOP PIC  X(022).
    46  000460 01  ksqrlj|ʏ PIC  X(035).
t@C: Z:\COB97\COPYLIB_DB\LTRSMK.CBLN[Y
   113  001070     EXEC  SQL  INCLUDE  LTRSMM.CBL            END-EXEC.          
   114  001080*                                                                 
   115  001090*--<>                                                     
t@C: Z:\COB97\COPYLIB_DB\LTRSMM.CBLI[v
     1  000010************************************************
     2  000020* iׁj(LTRSMM)
     3  000030************************************************
     4  000040 01  ksqrll|_mn PIC  X(010).
     5  000050 01  ksqrll|ă[XR[h PIC S9(001) COMP-3.
     6  000060 01  ksqrll|_񖾍ׂmn PIC S9(002) COMP-3.
     7  000070 01  ksqrll|R[hV[PX PIC S9(001) COMP-3.
     8  000080 01  ksqrll|R[h PIC  X(008).
     9  000090 01  ksqrll|R[h PIC  X(002).
    10  000100 01  ksqrll|qdeԍ PIC  X(016).
    11  000110 01  ksqrll|_|I PIC S9(001) COMP-3.
    12  000120 01  ksqrll|_|N PIC  X(006).
    13  000130 01  ksqrll||I PIC S9(001) COMP-3.
Pro*COBOL: Release 9.2.0.1.0 - Production on  May 1 11:16:46 2000

Copyright (c) 1982, 2002, Oracle Corporation.  All rights reserved.

    14  000140 01  ksqrll||N PIC  X(006).
    15  000150 01  ksqrll||I PIC S9(001) COMP-3.
    16  000160 01  ksqrll||N PIC  X(006).
    17  000170 01  ksqrll|eύX|I PIC S9(001) COMP-3.
    18  000180 01  ksqrll|eύX|N PIC  X(006).
    19  000190 01  ksqrll|Nx|I PIC S9(001) COMP-3.
    20  000200 01  ksqrll|Nx|N PIC  X(004).
    21  000210 01  ksqrll|_~[OOP PIC  X(010).
    22  000220 01  ksqrll|z PIC S9(013) COMP-3.
    23  000230 01  ksqrll| PIC S9(013) COMP-3.
    24  000240 01  ksqrll||I PIC S9(001) COMP-3.
    25  000250 01  ksqrll||N PIC  X(006).
    26  000260 01  ksqrll|R[h PIC S9(001) COMP-3.
    27  000270 01  ksqrll|őE敪 PIC S9(001) COMP-3.
    28  000280 01  ksqrll|f[^쐬|I PIC S9(001) COMP-3.
    29  000290 01  ksqrll|f[^쐬|N PIC  X(006).
    30  000300 01  ksqrll|_~[OOQ PIC  X(010).
    31  000310 01  ksqrll|[XJn|I PIC S9(001) COMP-3.
    32  000320 01  ksqrll|[XJn|N PIC  X(006).
    33  000330 01  ksqrll|[XI|I PIC S9(001) COMP-3.
    34  000340 01  ksqrll|[XI|N PIC  X(006).
    35  000350 01  ksqrll|[X PIC S9(003) COMP-3.
    36  000360 01  ksqrll|t@CiXJn|I PIC S9(001) COMP-3.
    37  000370 01  ksqrll|t@CiXJn|N PIC  X(006).
    38  000380 01  ksqrll|t@CiX|I PIC S9(001) COMP-3.
    39  000390 01  ksqrll|t@CiX|N PIC  X(006).
    40  000400 01  ksqrll|t@CiX PIC S9(003) COMP-3.
    41  000410 01  ksqrll|菈R[h PIC S9(002) COMP-3.
    42  000420 01  ksqrll|[X PIC S9(013) COMP-3.
    43  000430 01  ksqrll|xTCN PIC S9(002) COMP-3.
    44  000440 01  ksqrll|x PIC S9(003) COMP-3.
    45  000450 01  ksqrll|x PIC S9(002) COMP-3.
    46  000460 01  ksqrll|vZ PIC S9(001) COMP-3.
    47  000470 01  ksqrll|u PIC S9(003) COMP-3.
    48  000480 01  ksqrll|adfhm PIC S9(001) COMP-3.
    49  000490 01  ksqrll|P񃊁[XxI 
    50  000491                                              PIC S9(001) COMP-3.
    51  000500 01  ksqrll|P񃊁[XxN PIC  X(006).
    52  000510 01  ksqrll|P񃊁[Xx|I PIC S9(001) COMP-3.
    53  000520 01  ksqrll|P񃊁[Xx|N PIC  X(006).
    54  000530 01  ksqrll|O[Xx|I PIC S9(001) COMP-3.
    55  000540 01  ksqrll|O[Xx|N PIC  X(006).
    56  000550 01  ksqrll|O[X PIC S9(013) COMP-3.
    57  000560 01  ksqrll|O[X PIC S9(013) COMP-3.
    58  000570 01  ksqrll|O[Xxz PIC S9(013) COMP-3.
    59  000580 01  ksqrll|O[Xp PIC S9(013) COMP-3.
    60  000590 01  ksqrll|O[X[JnNI 
    61  000591                                              PIC S9(001) COMP-3.
    62  000600 01  ksqrll|O[X[JnNN PIC  X(004).
    63  000610 01  ksqrll|O[X[INI  
    64  000611                                              PIC S9(001) COMP-3.
    65  000620 01  ksqrll|O[X[INN PIC  X(004).
    66  000630 01  ksqrll|O[ PIC S9(003) COMP-3.
    67  000640 01  ksqrll|{ PIC S9(002)V9(9) COMP-3.
    68  000650 01  ksqrll| PIC S9(002)V9(9) COMP-3.
    69  000660 01  ksqrll|xz PIC S9(013) COMP-3.
    70  000670 01  ksqrll|v PIC S9(013) COMP-3.
    71  000680 01  ksqrll|ev PIC S9(013) COMP-3.
    72  000690 01  ksqrll|őz PIC S9(013) COMP-3.
    73  000700 01  ksqrll|Ŏx敪 PIC S9(001) COMP-3.
    74  000710 01  ksqrll|Őŗ PIC S9(002)V9(1) COMP-3.
    75  000720 01  ksqrll|ŃR[h PIC S9(002) COMP-3.
Pro*COBOL: Release 9.2.0.1.0 - Production on  May 1 11:16:46 2000

Copyright (c) 1982, 2002, Oracle Corporation.  All rights reserved.

    76  000730 01  ksqrll|pŒ莑Y PIC S9(013) COMP-3.
    77  000740 01  ksqrll|pی PIC S9(013) COMP-3.
    78  000750 01  ksqrll|pێ痿 PIC S9(013) COMP-3.
    79  000760 01  ksqrll|p̂P PIC S9(013) COMP-3.
    80  000770 01  ksqrll|p̂Q PIC S9(013) COMP-3.
    81  000780 01  ksqrll|p敪 PIC S9(001) COMP-3.
    82  000790 01  ksqrll|xR[h PIC  X(004).
    83  000800 01  ksqrll|sR[h PIC  X(007).
    84  000810 01  ksqrll|ԍ PIC  X(007).
    85  000820 01  ksqrll|a PIC  X(001).
    86  000830 01  ksqrll|xm|I PIC S9(001) COMP-3.
    87  000840 01  ksqrll|xm|N PIC  X(006).
    88  000850 01  ksqrll|xmNx|I PIC S9(001) COMP-3.
    89  000860 01  ksqrll|xmNx|N PIC  X(004).
    90  000870 01  ksqrll|S҃R[h PIC  X(004).
    91  000880 01  ksqrll|xFTuVXe敪 PIC  X(001).
    92  000890 01  ksqrll|xFV[PX PIC S9(005) COMP-3.
    93  000900 01  ksqrll|xFxF|I 
    94  000901                                              PIC S9(001) COMP-3.
    95  000910 01  ksqrll|xFxF|N PIC  X(006).
    96  000920 01  ksqrll|xFS҃R[h PIC S9(004) COMP-3.
    97  000930 01  ksqrll|cxFTuVXe敪 PIC  X(001).
    98  000940 01  ksqrll|cxFV[PX PIC S9(005) COMP-3.
    99  000950 01  ksqrll|cxFxF|I 
   100  000951                                              PIC S9(001) COMP-3.
   101  000960 01  ksqrll|cxFxF|N PIC  X(006).
   102  000970 01  ksqrll|cxFS҃R[h PIC S9(004) COMP-3.
   103  000980 01  ksqrll|Oc PIC S9(013) COMP-3.
   104  000990 01  ksqrll|O{c PIC S9(013) COMP-3.
   105  001000 01  ksqrll|OŎc PIC S9(013) COMP-3.
   106  001010 01  ksqrll|cz PIC S9(013) COMP-3.
   107  001020 01  ksqrll|cx|I PIC S9(001) COMP-3.
   108  001030 01  ksqrll|cx|N PIC  X(006).
   109  001040 01  ksqrll|_~[OOR PIC  X(024).
   110  001050 01  ksqrll|[X PIC S9(013) COMP-3.
   111  001060 01  ksqrll|mds[X PIC S9(013) COMP-3.
   112  001070 01  ksqrll|񗘑 PIC S9(013) COMP-3.
   113  001080 01  ksqrll|񌳖{xz PIC S9(013) COMP-3.
   114  001090 01  ksqrll|񌳖{c PIC S9(013) COMP-3.
   115  001100 01  ksqrll|c PIC S9(013) COMP-3.
   116  001110 01  ksqrll|Ŋz PIC S9(013) COMP-3.
   117  001120 01  ksqrll|Ŏc PIC S9(013) COMP-3.
   118  001130 01  ksqrll|񏔔p PIC S9(013) COMP-3.
   119  001140 01  ksqrll|xz PIC S9(013) COMP-3.
   120  001150 01  ksqrll|ŗ PIC S9(002)V9(1) COMP-3.
   121  001160 01  ksqrll|_~[ PIC  X(014).
   122  001170 01  ksqrll|xf[^쐬|I PIC S9(001) COMP-3.
   123  001180 01  ksqrll|xf[^쐬|N PIC  X(006).
   124  001190 01  ksqrll|f[^쐬|IQ PIC S9(001) COMP-3.
   125  001200 01  ksqrll|f[^쐬|NQ PIC  X(006).
   126  001210 01  ksqrll|df[^쐬|I PIC S9(001) COMP-3.
   127  001220 01  ksqrll|df[^쐬|N PIC  X(006).
   128  001230 01  ksqrll|_~[OOS PIC  X(018).
   129  001240 01  ksqrll|ʏ PIC  X(035).
t@C: Z:\COB97\COPYLIB_DB\LTRSMM.CBLN[Y
   116  001100     EXEC  SQL  INCLUDE  LTRSKM.CBL            END-EXEC.          
   117  001110                                                                  
t@C: Z:\COB97\COPYLIB_DB\LTRSKM.CBLI[v
     1  000010************************************************
     2  000020* i׏j(LTRSKM)
     3  000030************************************************
     4  000040 01  ksqrjl|jdxڐR[h PIC  X(008).
Pro*COBOL: Release 9.2.0.1.0 - Production on  May 1 11:16:46 2000

Copyright (c) 1982, 2002, Oracle Corporation.  All rights reserved.

     5  000050 01  ksqrjl|_ԍ PIC  X(009).
     6  000060 01  ksqrjl|ă[XR[h PIC S9(001) COMP-3.
     7  000070 01  ksqrjl|\ PIC  X(007).
     8  000080 01  ksqrjl|R[h PIC  X(003).
     9  000090 01  ksqrjl|x PIC S9(003) COMP-3.
    10  000100 01  ksqrjl|[ PIC S9(003) COMP-3.
    11  000110 01  ksqrjl| PIC S9(001) COMP-3.
    12  000120 01  ksqrjl|Z敪 PIC S9(001) COMP-3.
    13  000130 01  ksqrjl|ƏR[h PIC S9(004) COMP-3.
    14  000140 01  ksqrjl|s|I PIC S9(001) COMP-3.
    15  000150 01  ksqrjl|s|N PIC  X(006).
    16  000160 01  ksqrjl|菈R[h PIC S9(002) COMP-3.
    17  000170 01  ksqrjl|ʔ PIC S9(009) COMP-3.
    18  000180 01  ksqrjl||I PIC S9(001) COMP-3.
    19  000190 01  ksqrjl||N PIC  X(006).
    20  000200 01  ksqrjl|Ł|敪 PIC S9(001) COMP-3.
    21  000210 01  ksqrjl|Ł|z PIC S9(013) COMP-3.
    22  000220 01  ksqrjl|Ł|ŃR[h PIC S9(002) COMP-3.
    23  000230 01  ksqrjl|[X PIC S9(013) COMP-3.
    24  000240 01  ksqrjl|z PIC S9(013) COMP-3.
    25  000250 01  ksqrjl|z PIC S9(013) COMP-3.
    26  000260 01  ksqrjl|敪 PIC S9(001) COMP-3.
    27  000270 01  ksqrjl|sbc PIC S9(007) COMP-3.
    28  000280 01  ksqrjl|R[h PIC  X(003).
    29  000290 01  ksqrjl|[UR[h PIC  X(008).
    30  000300 01  ksqrjl|R[h PIC  X(002).
    31  000310 01  ksqrjl|ˍσtO PIC  X(001).
    32  000320 01  ksqrjl|_~[OOP PIC  X(005).
    33  000330 01  ksqrjl|ʏ PIC  X(035).
t@C: Z:\COB97\COPYLIB_DB\LTRSKM.CBLN[Y
   118  001120     EXEC  SQL  INCLUDE  IKOTBL001.CBL         END-EXEC.          
   119  001130                                                                  
t@C: Z:\COB97\COPYLIB_DB\IKOTBL001.CBLI[v
     1  000010************************************************
     2  000020* ϊe[u(IKOTBL001)
     3  000030************************************************
     4  000040 01  hjnOOP|R[h PIC  X(008).
     5  000050 01  hjnOOP|ړIbc PIC  X(001).
     6  000060 01  hjnOOP|VR[h PIC  X(007).
     7  000070 01  hjnOOP|} PIC  X(003).
     8  000080 01  hjnOOP|^MR[h PIC  X(007).
     9  000090 01  hjnOOP|񂹃R[h PIC  X(008).
    10  000100 01  hjnOOP|[UR[h PIC  X(008).
    11  000110 01  hjnOOP|ʂbc PIC  X(001).
t@C: Z:\COB97\COPYLIB_DB\IKOTBL001.CBLN[Y
   120  001140     EXEC  SQL  INCLUDE  IKOTBL002.CBL         END-EXEC.          
   121  001150                                                                  
t@C: Z:\COB97\COPYLIB_DB\IKOTBL002.CBLI[v
     1  000010************************************************
     2  000020* _ޓϊe[u(IKOTBL002)
     3  000030************************************************
     4  000040 01  hjnOOQ|_mn PIC  X(009).
     5  000050 01  hjnOOQ|ă[XR[h PIC S9(001) COMP-3.
     6  000060 01  hjnOOQ|菈R[h PIC S9(002) COMP-3.
     7  000070 01  hjnOOQ|菈R[h PIC S9(002) COMP-3.
     8  000080 01  hjnOOQ|ă[X PIC S9(002) COMP-3.
     9  000090 01  hjnOOQ|菈R[h PIC S9(002) COMP-3.
    10  000100 01  hjnOOQ|菈R[h PIC S9(002) COMP-3.
    11  000110 01  hjnOOQ|_ PIC  X(003).
    12  000120 01  hjnOOQ|_敪 PIC  X(001).
    13  000130 01  hjnOOQ|菇 PIC  X(001).
t@C: Z:\COB97\COPYLIB_DB\IKOTBL002.CBLN[Y
Pro*COBOL: Release 9.2.0.1.0 - Production on  May 1 11:16:46 2000

Copyright (c) 1982, 2002, Oracle Corporation.  All rights reserved.

   122  001160     EXEC  SQL  INCLUDE  IKOTBL005.CBL         END-EXEC.          
   123  001170*                                                                 
   124  001180                                                                  
t@C: Z:\COB97\COPYLIB_DB\IKOTBL005.CBLI[v
     1  000010************************************************
     2  000020* R[hϊe[u(IKOTBL005)
     3  000030************************************************
     4  000040 01  hjnOOT|R[h PIC  X(003).
     5  000050 01  hjnOOT|ANZX敪 PIC  X(001).
     6  000060 01  hjnOOT|菈R[h PIC  X(002).
     7  000070 01  hjnOOT|ŃR[h PIC  X(002).
     8  000080 01  hjnOOT|Z敪 PIC S9(001) COMP-3.
     9  000090 01  hjnOOT|萔R[h PIC  X(002).
    10  000100 01  hjnOOT|ă[XR[h PIC S9(001) COMP-3.
    11  000110 01  hjnOOT|v敪 PIC S9(001) COMP-3.
    12  000120 01  hjnOOT|敪P PIC S9(001) COMP-3.
    13  000130 01  hjnOOT|P PIC  X(001).
    14  000140 01  hjnOOT|敪Q PIC  X(001).
    15  000150 01  hjnOOT|_ޏP PIC S9(001) COMP-3.
    16  000160 01  hjnOOT|VR[h PIC  X(003).
    17  000170 01  hjnOOT|VR[hQ PIC  X(003).
t@C: Z:\COB97\COPYLIB_DB\IKOTBL005.CBLN[Y
   125  001190     EXEC  SQL  END  DECLARE          SECTION  END-EXEC.          
   126  001200*                                                                 
   127  001210*----------------------------------------------------------------*
   128  001220*    vnqjGA                                              *
   129  001230*----------------------------------------------------------------*
   130  001240 01  vnqj|GA.                                            
   131  001250*--< G[p >                                               
   132  001260     03  v|G[R[h             PIC S9(04).                 
   133  001270     03  v|                     PIC X(02).                  
   134  001280*                                                                 
   135  001290*--< tOAA >                                               
   136  001300     03  tOAA.                                            
   137  001310         05  v|I|tO         PIC  X(01).                 
   138  001320         05  v|ُI|tO     PIC  X(01).                 
   139  001330*                                                                 
   140  001340*--< GA >                                                 
   141  001350     03  GA.                                              
   142  001360         05  v|́|           PIC  9(09).                 
   143  001361         05  v|́|P         PIC  9(09).                 
   144  001370         05  v|ó|           PIC  9(09).                 
   145  001380*                                                                 
   146  001390*                                                                 
   147  001400*--< ʏ >                                                   
   148  001410 01  v|ʏ.                                                
   149  001420     03  v|VXet.                                        
   150  001430         05  v|I                 PIC  X(02) VALUE  "20".     
   151  001440         05  v|N               PIC  X(06).                 
   152  001450     03  v|VXe             PIC  X(08).                 
   153  001460     03  v|S                   PIC  X(08) VALUE "IKOPG   ".
   154  001470                                                                  
   155  001480*----------------------------------------------------------------*
   156  001490*    Tu[`                                              *
   157  001500*----------------------------------------------------------------*
   158  001510 01  CALL-AREA.                                                   
   159  001520*--< ʃOTu[` >                                       
   160  001530     03  CLOCO001                     PIC  X(08) VALUE "CLOCO001".
   161  001540     03  COBCO001                     PIC  X(08) VALUE "COBCO001".
   162  001550*                                                                 
   163  001560*----------------------------------------------------------------*
   164  001570*    bnoẍ                                                *
Pro*COBOL: Release 9.2.0.1.0 - Production on  May 1 11:16:46 2000

Copyright (c) 1982, 2002, Oracle Corporation.  All rights reserved.

   165  001580*----------------------------------------------------------------*
   166  001590*--< ʃOpp[^ >                                       
   167  001600 01  IF-CHOCO001.                                                 
   168  001610     COPY  CHOCO001  REPLACING  ==()==  BY  ==P|==.           
   169  001620*                                                                 
   170  001630*----------------------------------------------------------------*
   171  001640*    hmht@CǍTu[`pp^̈                *
   172  001650*----------------------------------------------------------------*
   173  001660 01  PARA-AREA.                                                   
   174  001670     COPY CPBCO001.                                               
   175  001680******************************************************************
   176  001690*    萔pf[^`GA                                      *
   177  001700******************************************************************
   178  001710 CONSTANT                             SECTION.                    
   179  001720 01  萔̈.                                                    
   180  001730     03  萔|vOhc         PIC  X(08) VALUE "COBIS420".
   181  001740     03  萔|vO           PIC  X(80)                  
   182  001750                              VALUE  "]pڍs".
   183  001760     03  萔|rpknj             PIC S9(04)  VALUE  ZERO.    
   184  001770     03  萔|rpkdmc           PIC S9(04)  VALUE  0100.    
   185  001780     03  萔|               PIC S9(04)  VALUE  ZERO.    
   186  001790     03  萔|ُ               PIC S9(04)  VALUE  0009.    
   187  001800******************************************************************
   188  001810*    oqnbdctqd            chuhrhnm              *
   189  001820******************************************************************
   190  001830 PROCEDURE                            DIVISION.                   
   191  001840*                                                                 
   192  001850     PERFORM  .                                           
   193  001860*                                                                 
   194  001870     PERFORM  又  UNTIL  v|I|tO  =  "Y".            
   195  001880*                                                                 
   196  001890     PERFORM  I.                                           
   197  001900*                                                                 
   198  001910     STOP     RUN.                                                
   199  001920*                                                                 
   200  001930******************************************************************
   201  001940*                            (NO 1.)                     *
   202  001950******************************************************************
   203  001960                              SECTION.                    
   204  001970 |rs`qs.                                            
   205  001980*                                                                 
   206  001990*----------------------------------------------------------------*
   207  002000*    JnbZ[Wo͏                                      *
   208  002010*----------------------------------------------------------------*
   209  002020     INITIALIZE                       IF-CHOCO001.                
   210  002030     MOVE  "3"                        TO  P|Cxg.     
   211  002040     MOVE  萔|vOhc       TO  P|\[Xhc.       
   212  002050     MOVE  "0"                        TO  P|AR[h.       
   213  002060     MOVE  "START"                    TO  P|.         
   214  002070     MOVE  萔|vO         TO  P|̑bZ[W. 
   215  002080     CALL  CLOCO001                USING  IF-CHOCO001.            
   216  002090*                                                                 
   217  002100*----------------------------------------------------------------*
   218  002110*    Ɨ̈̏l                                        *
   219  002120*----------------------------------------------------------------*
   220  002130     MOVE  SPACE                      TO  vnqj|GA.       
   221  002140     INITIALIZE                           vnqj|GA.       
   222  002150*                                                                 
   223  002160*--< bott擾 >                                           
   224  002170     ACCEPT    v|N               FROM  DATE.               
   225  002180*                                                                 
   226  002190*--< bot擾 >                                           
Pro*COBOL: Release 9.2.0.1.0 - Production on  May 1 11:16:46 2000

Copyright (c) 1982, 2002, Oracle Corporation.  All rights reserved.

   227  002200     ACCEPT    v|VXe         FROM  TIME.               
   228  002210*                                                                 
   229  002220*--< nq`bkdڑ >                                           
   230  002230     PERFORM   nq`bkdڑ.                                  
   231  002240*                                                                 
   232  002250*--< {׃e[uJ[\錾 >                   
   233  002260     PERFORM  {ׂ͂̌.                       
   234  002270*                                                                 
   235  002280*--<t@CI[v>                                             
   236  002290     PERFORM  t@CI[v.                                   
   237  002300*                                                                 
   238  002310*--<Kpt@Cǂ>                                       
   239  002320     PERFORM   Kpt@Cǂ.                            
   240  002330*                                                                 
   241  002340*--<{׃e[uJ[\Ǎ>                     
   242  002350     PERFORM   {׃J[\Ǎ.                      
   243  002360*                                                                 
   244  002370 |dwhs.                                              
   245  002380     EXIT.                                                        
   246  002390******************************************************************
   247  002400*    nq`bkdڑ                 (NO 1.1)                   *
   248  002410******************************************************************
   249  002420 nq`bkdڑ                     SECTION.                    
   250  002430 nq`bkdڑ|rs`qs.                                    
   251  002440*                                                                 
   252  002450*--< caڑp擾 >                                   
   253  002460     CALL  COBCO001                USING  PARA-AREA.              
   254  002470*                                                                 
   255  002480     MOVE  PARA-DBSTRING              TO  DB-STRING.              
   256  002490     MOVE  PARA-USERNAME              TO  USERNAME.               
   257  002500     MOVE  PARA-PASSWORD              TO  PASSWD.                 
   258  002510*                                                                 
   259  002520*----------------------------------------------------------------*
   260  002530*    Jnڑ                                                    *
   261  002540*----------------------------------------------------------------*
   262  002550     IF    DB-STRING  =  SPACE                                    
   263  002560        EXEC SQL                                                  
   264  002570           CONNECT  :USERNAME IDENTIFIED BY :PASSWD               
   265  002580        END-EXEC                                                  
   266  002590     ELSE                                                         
   267  002600        EXEC SQL                                                  
   268  002610           CONNECT  :USERNAME IDENTIFIED BY :PASSWD               
   269  002620             USING  :DB-STRING                                    
   270  002630        END-EXEC                                                  
   271  002640     END-IF.                                                      
   272  002650*                                                                 
   273  002660*----------------------------------------------------------------*
   274  002670*    ڑmF                                                    *
   275  002680*----------------------------------------------------------------*
   276  002690     EVALUATE  SQLCODE                                            
   277  002700        WHEN   萔|rpknj                                   
   278  002710           CONTINUE                                               
   279  002720        WHEN   OTHER                                              
   280  002730*--<       ڑG[ >                                           
   281  002740           MOVE     -10               TO  v|G[R[h        
   282  002750           PERFORM  G[菈                                
   283  002760     END-EVALUATE.                                                
   284  002770*                                                                 
   285  002780 nq`bkdڑ|dwhs.                                      
   286  002790     EXIT.                                                        
   287  002810******************************************************************
   288  002820*        {ׂ͂̌.     (NO 1.2)              *
Pro*COBOL: Release 9.2.0.1.0 - Production on  May 1 11:16:46 2000

Copyright (c) 1982, 2002, Oracle Corporation.  All rights reserved.

   289  002830******************************************************************
   290  002840 {ׂ͂̌                SECTION.             
   291  002850 {ׂ͂̌|rs`qs.                        
   292  002860*----------------------------------------------------------------*
   293  002870*    J[\nodm                                        *
   294  002880*----------------------------------------------------------------*
   295  002890     EXEC SQL                                                     
   296  002900       DECLARE CUR1  CURSOR FOR                                   
   297  002910         SELECT  LTRSMK._mn                              
   298  002920                ,LTRSMK.ă[XR[h                            
   299  002930                ,LTRSMK.菈R[h                        
   300  002940                ,LTRSMM.[XJnQI                        
   301  002950                ,LTRSMM.[XJnQN                      
   302  002960                ,LTRSMM.QI                      
   303  002970                ,LTRSMM.QN                    
   304  002980                ,LTRSMM.z                              
   305  002990                ,LTRSMM.                                
   306  003000                ,LTRSMM.f[^쐬QI                    
   307  003010                ,LTRSMM.f[^쐬QN                  
   308  003020                ,LTRSMM.ă[XR[h                            
   309  003030                ,LTRSMM.R[h                            
   310  003040                ,LTRSMM.R[h                            
   311  003050                ,LTRSMM.ă[XR[h                            
   312  003060                ,LTRSMM._mn                              
   313  003070                ,LTRSMM.菈R[h                        
   314  003080                ,LTRSMM.R[h                            
   315  003090           FROM  LTRSMK                                           
   316  003100                ,LTRSMM                                           
   317  003110           WHERE  LTRSMK._mn  =  LTRSMM._mn     
   318  003120             AND  LTRSMK.ă[XR[h  =                        
   319  003130                                        LTRSMM.ă[XR[h     
   320  003140             AND  (SUBSTR(LTRSMM.R[h,1,1)='1'          
   321  003150              OR  LTRSMM.R[h='46'                      
   322  003160              OR  LTRSMM.R[h='56')                     
   323  003170             AND  z <> 0                               
   324  003180     END-EXEC.                                                    
   325  003190*----------------------------------------------------------------*
   326  003200*    J[\nodm                                        *
   327  003210*----------------------------------------------------------------*
   328  003220     EXEC  SQL                                                    
   329  003230        OPEN  CUR1                                                
   330  003240     END-EXEC.                                                    
   331  003250*                                                                 
   332  003260*----------------------------------------------------------------*
   333  003270*    J[\nodmmF                                        *
   334  003280*----------------------------------------------------------------*
   335  003290     EVALUATE  SQLCODE                                            
   336  003300        WHEN  萔|rpknj                                    
   337  003310*--<        >                                                 
   338  003320           CONTINUE                                               
   339  003330        WHEN  OTHER                                               
   340  003340*--<       J[\nodmG[ >                               
   341  003350           MOVE  -20                   TO  v|G[R[h       
   342  003360           PERFORM  G[菈                                
   343  003370     END-EVALUATE.                                                
   344  003380*                                                                 
   345  003390 {ׂ͂̌|dwhs.                          
   346  003400     EXIT.                                                        
   347  003420******************************************************************
   348  003430*                   t@CI[v.       (NO 1.3)             *
   349  003440******************************************************************
   350  003450 t@CI[v                     SECTION.                    
Pro*COBOL: Release 9.2.0.1.0 - Production on  May 1 11:16:46 2000

Copyright (c) 1982, 2002, Oracle Corporation.  All rights reserved.

   351  003460 t@CI[v|rs`qs.                                    
   352  003470*----------------------------------------------------------------*
   353  003480*   ]pt@CI[v                           *
   354  003490*----------------------------------------------------------------*
   355  003500     OPEN  OUTPUT  oJt@C.                                  
   356  003510                                                                  
   357  003520*----------------------------------------------------------------*
   358  003530*   ]pt@CI[vmF                       *
   359  003540*----------------------------------------------------------------*
   360  003550     EVALUATE   v|                                          
   361  003560        WHEN  ZERO                                                
   362  003570*--<        >                                                 
   363  003580           CONTINUE                                               
   364  003590        WHEN  OTHER                                               
   365  003600*--<       t@CnodmG[ >                               
   366  003610           MOVE -30                   TO  v|G[R[h        
   367  003620           PERFORM  G[菈                                
   368  003630     END-EVALUATE.                                                
   369  003640*                                                                 
   370  003650*----------------------------------------------------------------*
   371  003660*   Kpt@CI[v                                   *
   372  003670*----------------------------------------------------------------*
   373  003680     OPEN  INPUT  ̓t@C.                                   
   374  003690*                                                                 
   375  003700*----------------------------------------------------------------*
   376  003710*   Kpt@CI[vmF                               *
   377  003720*----------------------------------------------------------------*
   378  003730     EVALUATE   v|                                          
   379  003740        WHEN  ZERO                                                
   380  003750*--<        >                                                 
   381  003760           CONTINUE                                               
   382  003770        WHEN  OTHER                                               
   383  003780*--<       t@CnodmG[ >                               
   384  003790           MOVE -40                   TO  v|G[R[h        
   385  003800           PERFORM  G[菈                                
   386  003810     END-EVALUATE.                                                
   387  003820 t@CI[v|dwhs.                                      
   388  003830     EXIT.                                                        
   389  003850******************************************************************
   390  003860*              Kpt@Cǂ.       (NO 1.5)            *
   391  003870******************************************************************
   392  003880 Kpt@Cǂ               SECTION.                    
   393  003890 Kpt@Cǂ݁|rs`qs.                              
   394  003900     READ    ̓t@C                                         
   395  003910               AT  END  GO  TO   Kpt@Cǂ݁|dwhs.
   396  003920*----------------------------------------------------------------*
   397  003930*              Kpt@Cǂ݊mF                        *
   398  003940*----------------------------------------------------------------*
   399  003950     EVALUATE   v|                                          
   400  003960        WHEN  ZERO                                                
   401  003970*--<        >                                                 
   402  003980           MOVE          ́[ TO     vr|         
   403  003990        WHEN  OTHER                                               
   404  004000*--<       ǂ݃G[ >                                           
   405  004010           MOVE -50                   TO     v|G[R[h     
   406  004020           PERFORM  G[菈                                
   407  004030     END-EVALUATE.                                                
   408  004040                                                                  
   409  004050 Kpt@Cǂ݁|dwhs.                                
   410  004060     EXIT.                                                        
   411  004070******************************************************************
   412  004080*        {׃J[\Ǎ.     (NO 1.6)              *
Pro*COBOL: Release 9.2.0.1.0 - Production on  May 1 11:16:46 2000

Copyright (c) 1982, 2002, Oracle Corporation.  All rights reserved.

   413  004090******************************************************************
   414  004100 {׃J[\Ǎ         SECTION.                    
   415  004110 {׃J[\Ǎ|rs`qs.                        
   416  004120*--< {׃e[uJ[\Ǎ >                   
   417  004130     EXEC SQL                                                     
   418  004140         FETCH  CUR1                                              
   419  004150          INTO  :ksqrlj|_mn                       
   420  004160               ,:ksqrlj|ă[XR[h                     
   421  004170               ,:ksqrlj|菈R[h                 
   422  004180               ,:ksqrll|[XJn|I                 
   423  004190               ,:ksqrll|[XJn|N               
   424  004200               ,:ksqrll||I               
   425  004210               ,:ksqrll||N             
   426  004220               ,:ksqrll|z                       
   427  004230               ,:ksqrll|                         
   428  004240               ,:ksqrll|f[^쐬|I             
   429  004250               ,:ksqrll|f[^쐬|N           
   430  004260               ,:ksqrll|ă[XR[h                     
   431  004270               ,:ksqrll|R[h                     
   432  004280               ,:ksqrll|R[h                     
   433  004290               ,:ksqrll|ă[XR[h                     
   434  004300               ,:ksqrll|_mn                       
   435  004310               ,:ksqrll|菈R[h                 
   436  004320               ,:ksqrll|R[h                     
   437  004330     END-EXEC.                                                    
   438  004340*----------------------------------------------------------------*
   439  004370*    {׃J[\ǍǍmF                      *
   440  004380*----------------------------------------------------------------*
   441  004390     EVALUATE   SQLCODE                                           
   442  004400        WHEN   萔|rpknj                                   
   443  004410*--<        >                                                 
   444  004420                                                                  
   445  004430        COMPUTE  v|́|  =  v|́|  +  1          
   446  004431        COMPUTE  v|́|P =  v|́|P + 1         
   447  004440        WHEN   萔|rpkdmc                                 
   448  004450*--<       ǍI >                                             
   449  004460           MOVE  "Y"                  TO  v|I|tO        
   450  004470        WHEN   OTHER                                              
   451  004480*--<       ǍG[ >                                           
   452  004490           MOVE     -60               TO  v|G[R[h        
   453  004500           PERFORM  G[菈                                
   454  004510     END-EVALUATE.                                                
   455  004520*                                                                 
   456  004530 {׃J[\Ǎ|dwhs.                          
   457  004540     EXIT.                                                        
   458  004550******************************************************************
   459  004560*                        又          (NO 2.)                 *
   460  004570******************************************************************
   461  004580 又                               SECTION.                    
   462  004590 又|rs`qs.                                              
   463  004600*--<o>                                                     
   464  004610     PERFORM    o.                                         
   465  004620*                                                                 
   466  004630*--<oҏW >                                                    
   467  004640     PERFORM    oҏW.                                         
   468  004650*                                                                 
   469  004660*--<ooJ>                                                     
   470  004670     PERFORM    ooJ.                                         
   471  004680*                                                                 
   472  004690*--<{׃J[\Ǎ(Qڈȍ~)>                     
   473  004700     PERFORM    {׃J[\Ǎ.                     
   474  004710                                                                  
Pro*COBOL: Release 9.2.0.1.0 - Production on  May 1 11:16:46 2000

Copyright (c) 1982, 2002, Oracle Corporation.  All rights reserved.

   475  004720 又|dwhs.                                                
   476  004780     EXIT.                                                        
   477  004790*                                                                 
   478  004800******************************************************************
   479  004810*                        o       (NO 2.1)                 *
   480  004820******************************************************************
   481  004830 o                             SECTION.                    
   482  004840 o|rs`qs.                                            
   483  004850*                                                                 
   484  004851     MOVE  ksqrlj|_mn(2:9)                        
   485  004852                                      TO   vr|_mn.    
   486  004860*--<{o>                                             
   487  004890     PERFORM    {o.                                 
   488  004910*                                                                 
   489  004920*--<גo>                                             
   490  004930     PERFORM    גo.                                 
   491  004950*                                                                 
   492  004960*--<׏񒊏o>                                         
   493  004970     PERFORM    ׏񒊏o.                             
   494  004990*                                                                 
   495  005000*--<R[hϊe[uo>                           
   496  005010     PERFORM    R[hϊe[uo.               
   497  005020*                                                                 
   498  005030 o|dwhs.                                              
   499  005040     EXIT.                                                        
   500  005060******************************************************************
   501  005070*                   {o       NO(2.1.1)             *
   502  005080******************************************************************
   503  005090 {o                     SECTION.                    
   504  005100 {o|rs`qs.                                    
   505  005110*                                                                 
   506  005120*--<擾ă[X>                                             
   507  005130     PERFORM    _ޓϊ擾.                               
   508  005140*                                                                 
   509  005150*--<擾A>                                                     
   510  005190     PERFORM    擾A.                                         
   511  005200*                                                                 
   512  005210 {o|dwhs.                                      
   513  005220     EXIT.                                                        
   514  005240******************************************************************
   515  005250*              _ޓϊ擾ă[X  (NO 2.1.1.1)      *
   516  005260******************************************************************
   517  005270 _ޓϊ擾                   SECTION.                    
   518  005280 _ޓϊ擾|rs`qs.                                  
   519  005290*                                                                 
   520  005300*----------------------------------------------------------------*
   521  005310*                ă[X񐔂̌                              *
   522  005320*----------------------------------------------------------------*
   523  005330     EXEC  SQL                                                    
   524  005340*                                                                 
   525  005350              SELECT  ă[X                                
   526  005351                     ,_                                    
   527  005352                     ,_敪                                  
   528  005360*                                                                 
   529  005370                INTO  :hjnOOQ|ă[X                 
   530  005371                     ,:hjnOOQ|_                     
   531  005372                     ,:hjnOOQ|_敪                   
   532  005380                                                                  
   533  005390                FROM  IKOTBL002                                   
   534  005400*                                                                 
   535  005410               WHERE  _mn  = :vr|_mn             
   536  005420                 AND  ă[XR[h  =                           
Pro*COBOL: Release 9.2.0.1.0 - Production on  May 1 11:16:46 2000

Copyright (c) 1982, 2002, Oracle Corporation.  All rights reserved.

   537  005430                                 :ksqrlj|ă[XR[h    
   538  005440                 AND  菈R[h =                        
   539  005450                                 :ksqrlj|菈R[h
   540  005460     END-EXEC.                                                    
   541  005470*----------------------------------------------------------------*
   542  005480*                ă[X񐔂̌mF                          *
   543  005490*----------------------------------------------------------------*
   544  005500      EVALUATE   SQLCODE                                          
   545  005510        WHEN   萔|rpknj                                   
   546  005520*--<        >                                                 
   547  005530           CONTINUE                                               
   548  005540        WHEN   OTHER                                              
   549  005550*--<       ǍȂ >                                           
   550  005560           MOVE     ZERO              TO                          
   551  005570                                    hjnOOQ|ă[X    
   552  005571           MOVE     SPACE             TO   hjnOOQ|_ 
   553  005572           MOVE     ZERO              TO  hjnOOQ|_敪
   554  005580           MOVE     -70               TO  v|G[R[h        
   555  005590           PERFORM  G[菈                                
   556  005600     END-EVALUATE.                                                
   557  005610*                                                                 
   558  005620 _ޓϊ擾|dwhs.                                    
   559  005630     EXIT.                                                        
   560  005640******************************************************************
   561  006050*              擾A                (NO 2.1.1.2)              *
   562  006060******************************************************************
   563  006070 擾A                             SECTION.                    
   564  006080 擾Aԁ|rs`qs.                                            
   565  006090*--<NEWL[̏l>                                          
   566  006100      MOVE      SPACE                 TO  vr|mdvL[.       
   567  006110      INITIALIZE                          vr|mdvL[.       
   568  006120*                                                                 
   569  006130      MOVE      ksqrlj|_mn(2:9)                   
   570  006140                                      TO  vr|mdv|_ԍ. 
   571  006150      MOVE      hjnOOQ|ă[X                        
   572  006160                                   TO  vr|mdv|ă[X.
   573  006170      MOVE      hjnOOQ|_                            
   574  006180                                      TO  vr|mdv|_ .
   575  006190      IF      vr|mdvL[  =  vr|nkcL[               
   576  006200              COMPUTE   vr|A  =  vr|A  +  1           
   577  006210      ELSE                                                        
   578  006220              MOVE   1                TO     vr|A           
   579  006230      END-IF.                                                     
   580  006240*                                                                 
   581  006250*--<OLDL[̏l>                                          
   582  006260      MOVE      SPACE                 TO  vr|nkcL[.       
   583  006270      INITIALIZE                          vr|nkcL[.       
   584  006280*                                                                 
   585  006290      MOVE    vr|mdvL[           TO    vr|nkcL[.  
   586  006300 擾Aԁ|dwhs.                                              
   587  006310      EXIT.                                                       
   588  006320******************************************************************
   589  006330*              גo         NO(2.1.2)                *
   590  006340******************************************************************
   591  006350 גo                     SECTION.                    
   592  006360 גo|rs`qs.                                    
   593  006370*--<擾VR[h>                                           
   594  006380*                                                                 
   595  006390     PERFORM   R[hϊe[u.                            
   596  006400*                                                                 
   597  006450*--<擾>                                                     
   598  006460*                                                                 
Pro*COBOL: Release 9.2.0.1.0 - Production on  May 1 11:16:46 2000

Copyright (c) 1982, 2002, Oracle Corporation.  All rights reserved.

   599  006470     PERFORM   擾.                                          
   600  006480*                                                                 
   601  006490*--<擾sσtO>                                       
   602  006500*                                                                 
   603  006510     PERFORM   擾sσtO.                            
   604  006520*                                                                 
   605  006530*--<R[hR[hϊ>                                   
   606  006540*                                                                 
   607  006550     PERFORM   R[hR[hϊ.                        
   608  006560*                                                                 
   609  006570*--<擾R[h>                                           
   610  006580*                                                                 
   611  006590     PERFORM   擾R[h.                                
   612  006600*                                                                 
   613  006610 גo|dwhs.                                      
   614  006620     EXIT.                                                        
   615  006640******************************************************************
   616  006650*           R[hϊe[u        (NO 2.1.2.1)            *
   617  006660******************************************************************
   618  006670 R[hϊe[u               SECTION.                    
   619  006680 R[hϊe[u|rs`qs.                              
   620  006690*                                                                 
   621  006700*----------------------------------------------------------------*
   622  006710*           R[hϊe[ǔ                         *
   623  006720*----------------------------------------------------------------*
   624  006730     EXEC    SQL                                                  
   625  006740                                                                  
   626  006750          SELECT   VR[h                                 
   627  006751                  ,}                                           
   628  006760                                                                  
   629  006770            INTO  :hjnOOP|VR[h                   
   630  006771                 ,:hjnOOP|}                             
   631  006780                                                                  
   632  006790            FROM   IKOTBL001                                      
   633  006800                                                                  
   634  006810           WHERE   R[h  =  :ksqrll|R[h 
   635  006820     END-EXEC.                                                    
   636  006830*                                                                 
   637  006840*----------------------------------------------------------------*
   638  006850*           R[hϊe[umF                           *
   639  006860*----------------------------------------------------------------*
   640  006870     EVALUATE   SQLCODE                                           
   641  006880        WHEN   萔|rpknj                                   
   642  006890*--<        >                                                 
   643  006900           CONTINUE                                               
   644  006910        WHEN   OTHER                                              
   645  006920*--<       ǍȂ >                                           
   646  006930           MOVE     ZERO              TO                          
   647  006940                                      hjnOOP|VR[h
   648  006941           MOVE     ZERO              TO  hjnOOP|}      
   649  006950           MOVE     -80               TO  v|G[R[h        
   650  006960           PERFORM  G[菈                                
   651  006970      END-EVALUATE.                                               
   652  006980                                                                  
   653  006990  R[hϊe[u|dwhs.                               
   654  007000     EXIT.                                                        
   655  007020******************************************************************
   656  007400*           擾                   (NO 2.1.2.2)              *
   657  007410******************************************************************
   658  007420 擾                             SECTION.                    
   659  007430 擾|rs`qs.                                            
   660  007440     MOVE          SPACE              TO    vr|. 
Pro*COBOL: Release 9.2.0.1.0 - Production on  May 1 11:16:46 2000

Copyright (c) 1982, 2002, Oracle Corporation.  All rights reserved.

   661  007450     INITIALIZE                             vr|. 
   662  007470     INITIALIZE                             vr|sdlo.   
   663  007480     MOVE     ksqrll||I                  
   664  007490                                      TO   vr|sdlo.    
   665  007500     MOVE     ksqrll||N                
   666  007510                                      TO   vr|N.          
   667  007520     IF       vr|sdlo  =  ZERO                         
   668  007530            MOVE      19              TO   vr|I             
   669  007540     ELSE                                                         
   670  007550            MOVE      20              TO   vr|I             
   671  007560     END-IF.                                                      
   672  007561     MOVE   vr|(1:4) TO    vr|N.           
   673  007570     MOVE         SPACE               TO   vr|[XJn.    
   674  007580     INITIALIZE                            vr|[XJn.    
   675  007600     INITIALIZE                            vr|sdlo.    
   676  007610     MOVE     ksqrll|[XJn|I                    
   677  007620                                      TO   vr|sdlo.    
   678  007630     MOVE     ksqrll|[XJn|N                  
   679  007640                                      TO vr|JnN.      
   680  007650     IF       vr|sdlo  =  0                            
   681  007660              MOVE    19              TO vr|JnI         
   682  007670     ELSE                                                         
   683  007680              MOVE    20              TO vr|JnI         
   684  007690     END-IF.                                                      
   685  007700     MOVE   vr|N(3:2)         TO    vr|.             
   686  007710     MOVE   vr|JnN(3:2)   TO    vr|Jn.         
   687  007711     MOVE   vr|[XJn(1:4) TO    vr|NP.           
   688  007721     COMPUTE  vr|  =   (vr|N - vr|NP) * 12.   
   689  007872     COMPUTE  vr|  = vr| + vr| - vr|Jn. 
   690  007880 擾|dwhs.                                              
   691  007890     EXIT.                                                        
   692  007910******************************************************************
   693  007920*           擾sσtO         (NO 2.1.2.3)          *
   694  007930******************************************************************
   695  007940 擾sσtO               SECTION.                    
   696  007950 擾sσtO|rs`qs.                              
   697  007960                                                                  
   698  007970     IF   ksqrll|f[^쐬|I  =  ZERO           
   699  007980                                                                  
   700  007990          MOVE        19              TO                          
   701  008000                                      vr|f[^쐬|I
   702  008010     ELSE                                                         
   703  008020                                                                  
   704  008030          MOVE        20              TO                          
   705  008040                                      vr|f[^쐬|I
   706  008050     END-IF.                                                      
   707  008060                                                                  
   708  008070     MOVE  ksqrll|f[^쐬|N                 
   709  008080                                      TO                          
   710  008090                                    vr|f[^쐬|N
   711  008091     MOVE     ́[            TO  vr|.           
   712  008100     IF   vr|f[^쐬  <  vr|                 
   713  008110                                                                  
   714  008120           MOVE         "1"           TO  vr|sσtO
   715  008130                                                                  
   716  008140     ELSE                                                         
   717  008150                                                                  
   718  008160          MOVE         "0"            TO  vr|sσtO
   719  008170                                                                  
   720  008180     END-IF.                                                      
   721  008190                                                                  
   722  008200 擾sσtO|dwhs.                                
Pro*COBOL: Release 9.2.0.1.0 - Production on  May 1 11:16:46 2000

Copyright (c) 1982, 2002, Oracle Corporation.  All rights reserved.

   723  008210     EXIT.                                                        
   724  008220******************************************************************
   725  008230*           R[hR[hϊ      (NO 2.1.2.4)         *
   726  008240******************************************************************
   727  008250 R[hR[hϊ           SECTION.                    
   728  008260 R[hR[hϊ|rs`qs.                          
   729  008270*                                                                 
   730  008280      EVALUATE      ksqrll|R[h                  
   731  008290                                                                  
   732  008300         WHEN   1                                                 
   733  008310                                                                  
   734  008320             MOVE   "0"               TO      vr|R[h
   735  008330         WHEN   2                                                 
   736  008340                                                                  
   737  008350             MOVE   "5"               TO      vr|R[h
   738  008360         WHEN   3                                                 
   739  008370                                                                  
   740  008380             MOVE    "3"              TO      vr|R[h
   741  008390         WHEN   4                                                 
   742  008400             MOVE    "4"              TO      vr|R[h
   743  008410         WHEN OTHER                                               
   744  008420             MOVE    "0"              TO      vr|R[h
   745  008430     END-EVALUATE.                                                
   746  008440                                                                  
   747  008450 R[hR[hϊ|dwhs.                            
   748  008460     EXIT.                                                        
   749  008480******************************************************************
   750  008490*           擾R[h          (NO 2.1.2.5)             *
   751  008500******************************************************************
   752  008510 擾R[h                   SECTION.                    
   753  008520 擾R[h|rs`qs.                                  
   754  008530                                                                  
   755  008531      MOVE       ZERO                 TO   vr|tO.          
   756  008540      IF   ksqrll|菈R[h  =  89                
   757  008550                                                                  
   758  008560          MOVE     "U00"              TO   vr|R[h   
   759  008570          MOVE       1                TO   vr|tO           
   760  008580      END-IF.                                                     
   761  008590      IF    (ksqrll|菈R[h  =  52  OR          
   762  008600             ksqrll|菈R[h  = 62)              
   763  008610        AND ksqrll|R[h  =  "56"                 
   764  008620        AND hjnOOQ|_敪  =  "5"                      
   765  008630        AND hjnOOQ|_(1:1)  NOT =  "6"               
   766  008640                                                                  
   767  008650           MOVE    "W01"              TO   vr|R[h   
   768  008651           MOVE       1               TO   vr|tO           
   769  008660                                                                  
   770  008670      END-IF.                                                     
   771  008680      IF    (ksqrll|菈R[h  =  52  OR          
   772  008690             ksqrll|菈R[h  =  62)             
   773  008700        AND ksqrll|R[h  =  "56"                 
   774  008710        AND hjnOOQ|_敪  =  "5"                      
   775  008720        AND hjnOOQ|_(1:1)  =  "6"                   
   776  008730                                                                  
   777  008740           MOVE    "WO2"              TO   vr|R[h   
   778  008741           MOVE       1               TO   vr|tO           
   779  008750      END-IF.                                                     
   780  008760      IF    (ksqrll|菈R[h  =  52  OR          
   781  008770             ksqrll|菈R[h  = 62)              
   782  008780       AND ksqrll|R[h  =  "56"                  
   783  008790       AND hjnOOQ|_敪  =  "0"                       
   784  008800                                                                  
Pro*COBOL: Release 9.2.0.1.0 - Production on  May 1 11:16:46 2000

Copyright (c) 1982, 2002, Oracle Corporation.  All rights reserved.

   785  008810           MOVE    "W51"              TO   vr|R[h   
   786  008811           MOVE       1               TO   vr|tO           
   787  008820      END-IF.                                                     
   788  008830      IF    (ksqrll|菈R[h  =  51  OR          
   789  008840             ksqrll|菈R[h  =  61)             
   790  008850        AND ksqrll|R[h  =  "56"                 
   791  008860        AND hjnOOQ|_敪  =  "0"                      
   792  008870                                                                  
   793  008880           MOVE    "W52"              TO   vr|R[h   
   794  008881           MOVE       1               TO   vr|tO           
   795  008890      END-IF.                                                     
   796  008900      IF     ksqrll|菈R[h  =  39              
   797  008910         AND ksqrll|R[h  =  "46"                
   798  008920         AND hjnOOQ|_敪  =  "5"                     
   799  008930         AND hjnOOQ|_(1:1)  NOT =  "6"              
   800  008940                                                                  
   801  008950         MOVE    "V01"                TO   vr|R[h   
   802  008951         MOVE       1                 TO   vr|tO           
   803  008960      END-IF.                                                     
   804  008970      IF     ksqrll|菈R[h  =  39              
   805  008980         AND ksqrll|R[h  =  "46"                
   806  008990         AND hjnOOQ|_敪  =  "5"                     
   807  009000         AND hjnOOQ|_(1:1)   =  "6"                 
   808  009010                                                                  
   809  009020         MOVE    "V02"                TO   vr|R[h   
   810  009021         MOVE       1                 TO   vr|tO           
   811  009030      END-IF.                                                     
   812  009031      IF     vr|tO  =  ZERO                                
   813  009032         MOVE      ZERO               TO   vr|R[h   
   814  009033      END-IF.                                                     
   815  009040 擾R[h|dwhs.                                    
   816  009050      EXIT.                                                       
   817  009070******************************************************************
   818  009080*           ׏񒊏o       (NO 2.1.3)                *
   819  009090******************************************************************
   820  009100 ׏񒊏o                 SECTION.                    
   821  009110 ׏񒊏o|rs`qs.                                
   822  009120*                                                                 
   823  009130*--<擾p̉ϊz>                                       
   824  009140*                                                                 
   825  009150      PERFORM    擾p̉ϊz.                          
   826  009160*                                                                 
   827  009170*--<sۂɃZbgŐV̏ʔ>               
   828  009180*                                                                 
   829  009190      PERFORM    ŐV.                                    
   830  009200*                                                                 
   831  009250 ׏񒊏o|dwhs.                                  
   832  009260      EXIT.                                                       
   833  009280******************************************************************
   834  009290*                擾p̉ϊz   (NO 2.1.3.1)           *
   835  009300******************************************************************
   836  009310 擾p̉ϊz                       SECTION.            
   837  009320 擾p̉ϊz|rs`qs.                              
   838  009330*----------------------------------------------------------------*
   839  009340*                擾p̉ϊž                    *
   840  009350*----------------------------------------------------------------*
   841  009360                                                                  
   842  009370     EXEC   SQL                                                   
   843  009380                                                                  
   844  009390            SELECT  z                                      
   845  009400                   ,QN                                
   846  009410                   ,QI                                  
Pro*COBOL: Release 9.2.0.1.0 - Production on  May 1 11:16:46 2000

Copyright (c) 1982, 2002, Oracle Corporation.  All rights reserved.

   847  009420              INTO :ksqrjl|z                        
   848  009430                  ,:ksqrjl||N                  
   849  009440                  ,:ksqrjl||I                    
   850  009450              FROM  LTRSKM                                        
   851  009460                                                                  
   852  009470             WHERE  _ԍ  =  :vr|_mn              
   853  009480               AND  ă[XR[h  =                             
   854  009490                                     :ksqrll|ă[XR[h
   855  009500               AND  R[h  = :vr|R[h       
   856  009510*               AND  ˍσtO  =  NULL                         
   857  009520     END-EXEC.                                                    
   858  009530*----------------------------------------------------------------*
   859  009540*                擾p̉ϊž                    *
   860  009550*----------------------------------------------------------------*
   861  009560     EVALUATE   SQLCODE                                           
   862  009570        WHEN   萔|rpknj                                   
   863  009580*--<        >                                                 
   864  009590           PERFORM     Sđ݂ꍇ                           
   865  009600        WHEN   OTHER                                              
   866  009610*--<       ǍȂ >                                           
   867  009620           PERFORM     SĂȂ                                 
   868  009630                                                                  
   869  009640      END-EVALUATE.                                               
   870  009650 擾p̉ϊz|dwhs.                                
   871  009660      EXIT.                                                       
   872  009680******************************************************************
   873  009690*                Sđ݂ꍇ                                *
   874  009700******************************************************************
   875  009710 Sđ݂ꍇ                     SECTION.                    
   876  009720 Sđ݂ꍇ|rs`qs.                                    
   877  009730     IF    ksqrjl||I  =  ZERO                    
   878  009740                                                                  
   879  009750           MOVE        19             TO    vr|I            
   880  009760     ELSE                                                         
   881  009770           MOVE        20             TO    vr|I            
   882  009780     END-IF.                                                      
   883  009790     MOVE        ksqrjl||N                     
   884  009800                                      TO    vr|N          
   885  009810     IF    ksqrjl|z  >  ZERO                        
   886  009820*--<NO 15>                                                        
   887  009830           MOVE    ksqrll|z                     
   888  009831                                     TO    oJ[z           
   889  009840*--<NO 16>                                                        
   890  009850           MOVE    ksqrll|                       
   891  009860                                      TO    oJ[z    
   892  009870*--<NO 17>                                                        
   893  009880           MOVE    vr|                           
   894  009890                                      TO    oJ[N      
   895  009900     ELSE                                                         
   896  009910           MOVE    ZERO               TO    oJ[z          
   897  009920           MOVE    ZERO               TO    oJ[z    
   898  009930           MOVE    ZERO               TO    oJ[N      
   899  009940     END-IF.                                                      
   900  009950 Sđ݂ꍇ|dwhs.                                      
   901  009960     EXIT.                                                        
   902  009970******************************************************************
   903  009980*                SĂȂ                                      *
   904  009990******************************************************************
   905  010000 SĂȂ                           SECTION.                    
   906  010010 SĂȂ|rs`qs.                                          
   907  010020     IF    vr|(1:6)  > vr|(1:6)         
   908  010030*--<p(No.1O)ҏW>                                       
Pro*COBOL: Release 9.2.0.1.0 - Production on  May 1 11:16:46 2000

Copyright (c) 1982, 2002, Oracle Corporation.  All rights reserved.

   909  010040           MOVE    ksqrll|z                     
   910  010041                                      TO    oJ[z          
   911  010050*--<p(No.11)ҏW>                                  
   912  010060           MOVE    ksqrll|                       
   913  010070                                      TO    oJ[z    
   914  010080*--<\imXjҏW>                                   
   915  010090           MOVE   vr| TO    oJ[N     
   916  010100     ELSE                                                         
   917  010110                                                                  
   918  010120           MOVE    ZERO               TO    oJ[z          
   919  010130           MOVE    ZERO               TO    oJ[z    
   920  010140           MOVE    ZERO               TO    oJ[N      
   921  010150     END-IF.                                                      
   922  010160 SĂȂ|dwhs.                                            
   923  010170     EXIT.                                                        
   924  010180******************************************************************
   925  010190*                ŐV           (NO 2.1.3.2)             *
   926  010200******************************************************************
   927  010210 ŐV                         SECTION.                    
   928  010220 ŐV|rs`qs.                                        
   929  010230*                                                                 
   930  010240*----------------------------------------------------------------*
   931  010250*                ŐV̌                              *
   932  010260*----------------------------------------------------------------*
   933  010270      EXEC     SQL                                                
   934  010280                                                                  
   935  010290              SELECT   ʔ                                   
   936  010291                      ,QN                             
   937  010300                                                                  
   938  010310                INTO  :ksqrjl|ʔ                     
   939  010311                     ,:ksqrjl||N               
   940  010320                                                                  
   941  010330                FROM   LTRSKM                                     
   942  010340                                                                  
   943  010350               WHERE   _ԍ  =   :vr|_mn          
   944  010360                 AND   ă[XR[h  =                          
   945  010370                                     :ksqrll|ă[XR[h
   946  010380                 AND   R[h  =  :vr|R[h   
   947  010390      END-EXEC.                                                   
   948  010400*----------------------------------------------------------------*
   949  010410*                ŐVmF                                *
   950  010420*----------------------------------------------------------------*
   951  010430      EVALUATE   SQLCODE                                          
   952  010440        WHEN   萔|rpknj                                   
   953  010450*--<        >                                                 
   954  010460           CONTINUE                                               
   955  010470        WHEN   OTHER                                              
   956  010480*--<       ǍȂ >                                           
   957  010490           MOVE     ZERO              TO   ksqrjl|ʔ 
   958  010491           MOVE     ZERO              TO                          
   959  010492                                      ksqrjl||N
   960  010500           MOVE     -90               TO   v|G[R[h       
   961  010510           PERFORM     G[菈                             
   962  010520      END-EVALUATE.                                               
   963  010530                                                                  
   964  010540 ŐV|dwhs.                                          
   965  010550      EXIT.                                                       
   966  010960******************************************************************
   967  010970*             R[hϊe[uo   (NO 2.1.4)    *
   968  010980******************************************************************
   969  010990 R[hϊe[uo   SECTION.                    
   970  011000 R[hϊe[uo|rs`qs.                  
Pro*COBOL: Release 9.2.0.1.0 - Production on  May 1 11:16:46 2000

Copyright (c) 1982, 2002, Oracle Corporation.  All rights reserved.

   971  011010*                                                                 
   972  011020*----------------------------------------------------------------*
   973  011030*           R[hϊe[ǔ                     *
   974  011040*----------------------------------------------------------------*
   975  011050     EXEC   SQL                                                   
   976  011060      SELECT    R[h                                  
   977  011070                                                                  
   978  011080        INTO   :hjnOOT|R[h                    
   979  011090                                                                  
   980  011100        FROM    IKOTBL005                                         
   981  011110                                                                  
   982  011120       WHERE    VR[h  =  :vr|R[h        
   983  011130     END-EXEC.                                                    
   984  011140*----------------------------------------------------------------*
   985  011150*           R[hϊe[umF                       *
   986  011160*----------------------------------------------------------------*
   987  011170      EVALUATE   SQLCODE                                          
   988  011180        WHEN   萔|rpknj                                   
   989  011190*--<        >                                                 
   990  011200           CONTINUE                                               
   991  011210        WHEN   OTHER                                              
   992  011220*--<       ǍȂ >                                           
   993  011230           MOVE     ZERO              TO                          
   994  011240                                    hjnOOT|R[h
   995  011250           MOVE     -100              TO   v|G[R[h       
   996  011260           PERFORM     G[菈                             
   997  011270      END-EVALUATE.                                               
   998  011280 R[hϊe[uo|dwhs.                    
   999  011290      EXIT.                                                       
  1000  011310******************************************************************
  1001  011320*                     oҏW          (NO 2.2)                 *
  1002  011330******************************************************************
  1003  011340 oҏW                             SECTION.                    
  1004  011350 oҏW|rs`qs.                                            
  1005  011360*--<NO 1>                                                         
  1006  011370     MOVE   vr|_mn        TO   oJ[_ԍ.        
  1007  011390*--<NO 2>                                                         
  1008  011400     MOVE   hjnOOQ|ă[X                            
  1009  011410                                      TO   oJ[ă[X.    
  1010  011420*--<NO 3>                                                         
  1011  011430     MOVE   hjnOOQ|_    TO   oJ[_.        
  1012  011440*--<NO 4>                                                         
  1013  011450     MOVE   vr|A                TO   oJ[A.            
  1014  011460*--<NO 5>                                                         
  1015  011470     MOVE   hjnOOP|VR[h                          
  1016  011480                                      TO   oJ[R[h.    
  1017  011490*--<NO 6>                                                         
  1018  011500     MOVE   hjnOOP|}        TO   oJ[R[h.    
  1019  011510*--<NO 7>                                                         
  1020  011520     MOVE    vr|               TO   oJ[TCg.      
  1021  011530*--<NO 8>                                                         
  1022  011540     MOVE   ksqrll||N(5:2)             
  1023  011550                                      TO   oJ[.          
  1024  011560*--<NO 9>                                                         
  1025  011570     MOVE   vr|      TO   oJ[\.      
  1026  011580*--<NO 10>                                                        
  1027  011590     MOVE   ksqrll|z                            
  1028  011600                                      TO   oJ[p.        
  1029  011610*--<NO 11>                                                        
  1030  011620     MOVE   ksqrll|  TO   oJ[p.  
  1031  011630*--<NO 12>                                                        
  1032  011640     MOVE   ZERO                      TO   oJ[p萔.    
Pro*COBOL: Release 9.2.0.1.0 - Production on  May 1 11:16:46 2000

Copyright (c) 1982, 2002, Oracle Corporation.  All rights reserved.

  1033  011650*--<NO 13>                                                        
  1034  011660     MOVE   oJ[p            TO   oJ[p㑍z.      
  1035  011670*--<NO 14>                                                        
  1036  011680     MOVE   oJ[p      TO   oJ[p㑍z.
  1037  011690                                                                  
  1038  011700*--<NO 18>                                                        
  1039  011710     COMPUTE   oJ[z  =  oJ[p㑍z                
  1040  011720                               +  oJ[p㑍z          
  1041  011730                               -  oJ[z                    
  1042  011740                               -  oJ[z.             
  1043  011750*--<NO 19>                                                        
  1044  011760     MOVE   vr|sσtO  TO                          
  1045  011770                                         oJ[sσtO.
  1046  011780*--<NO 20>                                                        
  1047  011790     MOVE   ZERO                      TO                          
  1048  011800                                     oJ[sσtO.
  1049  011810*--<NO 21>                                                        
  1050  011820     MOVE   ZERO                      TO   oJ[ԍ.      
  1051  011830*--<NO 22>                                                        
  1052  011840     MOVE   v|VXet          TO   oJ[XVN.      
  1053  011850*--<NO 23>                                                        
  1054  011860     MOVE   v|VXe          TO   oJ[XV.        
  1055  011870*--<NO 24>                                                        
  1056  011880     MOVE   v|S                TO   oJ[XV.          
  1057  011890*--<NO 25>                                                        
  1058  011900     MOVE   v|S                TO   oJ[͒S҃R[h.
  1059  011910*--<NO 26>                                                        
  1060  011920     MOVE   vr|R[h      TO   oJ[@.        
  1061  011930*--<NO 27>                                                        
  1062  011940     IF   hjnOOQ|_(1:1)  =  "6"                     
  1063  011950          MOVE    oJ[p      TO   oJ[\tgp   
  1064  011960     ELSE                                                         
  1065  011970          MOVE    ZERO                TO   oJ[\tgp   
  1066  011980     END-IF.                                                      
  1067  011990*--<NO 28>                                                        
  1068  012000     IF   hjnOOQ|_(1:1)  =  "6"                     
  1069  012010          MOVE   oJ[p TO                          
  1070  012020                                        oJ[\tgp
  1071  012030     ELSE                                                         
  1072  012040          MOVE    ZERO                TO                          
  1073  012050                                        oJ[\tgp
  1074  012060     END-IF.                                                      
  1075  012070*--<NO 29>                                                        
  1076  012080     MOVE   v|VXet          TO   oJ[o^N.      
  1077  012090*--<NO 30>                                                        
  1078  012100     MOVE   v|VXe          TO   oJ[o^.        
  1079  012110*--<NO 31>                                                        
  1080  012120     MOVE   v|S                TO   oJ[o^S.      
  1081  012130*--<NO 32>                                                        
  1082  012140     MOVE   vr|R[h      TO   oJ[R[h.  
  1083  012150*--<NO 33>                                                        
  1084  012160     MOVE   ksqrjl|ʔ    TO   oJ[ʔ.        
  1085  012170*--<NO 34>                                                        
  1086  012180     MOVE   oJ[N          TO   oJ[.      
  1087  012190*--<NO 35>                                                        
  1088  012200     MOVE   ksqrjl||N                          
  1089  012210                                      TO   oJ[N.      
  1090  012220*--<NO 36>                                                        
  1091  012230     IF     ksqrll|  NOT =  ZERO                 
  1092  012240            MOVE   0.05                TO   oJ[ŗ        
  1093  012250     ELSE                                                         
  1094  012260            MOVE   ZERO               TO   oJ[ŗ         
Pro*COBOL: Release 9.2.0.1.0 - Production on  May 1 11:16:46 2000

Copyright (c) 1982, 2002, Oracle Corporation.  All rights reserved.

  1095  012270     END-IF.                                                      
  1096  012280*--<NO 37>                                                        
  1097  012290     IF     oJ[ŗ  =  ZERO                               
  1098  012300            MOVE   ZERO               TO   oJ[ŗ敪     
  1099  012310     ELSE                                                         
  1100  012320            MOVE   "12"               TO   oJ[ŗ敪     
  1101  012330     END-IF.                                                      
  1102  012340*--<NO 38>                                                        
  1103  012350     MOVE   ksqrll|ă[XR[h                          
  1104  012360                                      TO oJ[ă[XR[hP.
  1105  012370*--<NO 39>                                                        
  1106  012380     MOVE   hjnOOT|R[h                        
  1107  012390                                      TO oJ[R[hP.
  1108  012400*--<NO 40>                                                        
  1109  012410     IF     oJ[\(1:2)  =  20                          
  1110  012420                                                                  
  1111  012430            MOVE         1            TO  vr|\|I
  1112  012440     ELSE                                                         
  1113  012450            MOVE         0            TO  vr|\|I
  1114  012460     END-IF.                                                      
  1115  012470     MOVE   oJ[\(3:6)     TO                          
  1116  012480                                       vr|\|N.
  1117  012490                                                                  
  1118  012500     MOVE   vr|\        TO    oJ[\P. 
  1119  012510 oҏW|dwhs.                                              
  1120  012520     EXIT.                                                        
  1121  012540******************************************************************
  1122  012550*                        ooJ           (NO 2.3)             *
  1123  012560******************************************************************
  1124  012570 ooJ                             SECTION.                    
  1125  012580 ooJ|rs`qs.                                            
  1126  012590*                                                                 
  1127  012600     WRITE   oJ[R[h.                                      
  1128  012610     EVALUATE   v|                                          
  1129  012620        WHEN   ZERO                                               
  1130  012630*--<    >                                                     
  1131  012640            COMPUTE  v|ó|  =  v|ó|  +  1      
  1132  012650                                                                  
  1133  012660        WHEN   OTHER                                              
  1134  012670*--<WRITE G[>                                                 
  1135  012680            MOVE     -110              TO  v|G[R[h       
  1136  012690                                                                  
  1137  012700            PERFORM  G[菈                               
  1138  012710                                                                  
  1139  012720     END-EVALUATE.                                                
  1140  012730                                                                  
  1141  012740 ooJ|dwhs.                                              
  1142  012750     EXIT.                                                        
  1143  012760******************************************************************
  1144  012770*                     I             (NO 3.)               *
  1145  012780******************************************************************
  1146  012790 I                             SECTION.                    
  1147  012800 I|rs`qs.                                            
  1148  012810*                                                                 
  1149  012820      PERFORM  caN[Y.                                  
  1150  012830*                                                                 
  1151  012840      CLOSE    oJt@C  ̓t@C.                        
  1152  012850*                                                                 
  1153  012860      PERFORM  IbZ[Wo.                                
  1154  012870*                                                                 
  1155  012880*--< vOI >                                         
  1156  012890      MOVE  萔|             TO  PROGRAM-STATUS.        
Pro*COBOL: Release 9.2.0.1.0 - Production on  May 1 11:16:46 2000

Copyright (c) 1982, 2002, Oracle Corporation.  All rights reserved.

  1157  012900*                                                                 
  1158  012910 I|dwhs.                                              
  1159  012920      EXIT.                                                       
  1160  012930******************************************************************
  1161  012940*    IbZ[Wo           (NO 3.2)                       *
  1162  012950******************************************************************
  1163  012960 IbZ[Wo                   SECTION.                    
  1164  012970 IbZ[Wó|rs`qs.                                  
  1165  012980*                                                                 
  1166  012990*----------------------------------------------------------------*
  1167  013000*    bZ[Wo͏                                      *
  1168  013010*----------------------------------------------------------------*
  1169  013020     INITIALIZE                       IF-CHOCO001.                
  1170  013030     MOVE  "3"                        TO  P|Cxg.     
  1171  013040     MOVE  萔|vOhc       TO  P|\[Xhc.       
  1172  013050     MOVE  "0"                        TO  P|AR[h.       
  1173  013060     MOVE  "LTRSMM"                   TO  P|e[uhc. 
  1174  013070     MOVE  "COUNT"                    TO  P|.         
  1175  013080     MOVE  v|́|             TO  P|f[^e.       
  1176  013090     MOVE  "ד"             TO  P|̑bZ[W. 
  1177  013100     CALL  CLOCO001                USING  IF-CHOCO001.            
  1178  013110*                                                                 
  1179  013111     INITIALIZE                       IF-CHOCO001.                
  1180  013112     MOVE  "3"                        TO  P|Cxg.     
  1181  013113     MOVE  萔|vOhc       TO  P|\[Xhc.       
  1182  013114     MOVE  "0"                        TO  P|AR[h.       
  1183  013115     MOVE  "LTRSMK"                   TO  P|e[uhc. 
  1184  013116     MOVE  "COUNT"                    TO  P|.         
  1185  013117     MOVE  v|́|             TO  P|f[^e.       
  1186  013118     MOVE  "{"             TO  P|̑bZ[W. 
  1187  013119     CALL  CLOCO001                USING  IF-CHOCO001             
  1188  013120*                                                                 
  1189  013121     INITIALIZE                       IF-CHOCO001.                
  1190  013130     MOVE  "3"                        TO  P|Cxg.     
  1191  013140     MOVE  萔|vOhc       TO  P|\[Xhc.       
  1192  013150     MOVE  "0"                        TO  P|AR[h.       
  1193  013160     MOVE  "CISUF421"                 TO  P|e[uhc. 
  1194  013170     MOVE  "COUNT"                    TO  P|.         
  1195  013180     MOVE  v|ó|             TO  P|f[^e.       
  1196  013190     MOVE  "]pڍso"                       
  1197  013191                                      TO  P|̑bZ[W. 
  1198  013200     CALL  CLOCO001                USING  IF-CHOCO001.            
  1199  013210*                                                                 
  1200  013220*----------------------------------------------------------------*
  1201  013230*    IbZ[Wo                                          *
  1202  013240*----------------------------------------------------------------*
  1203  013250     INITIALIZE                       IF-CHOCO001.                
  1204  013260     MOVE  "3"                        TO  P|Cxg.     
  1205  013270     MOVE  萔|vOhc       TO  P|\[Xhc.       
  1206  013280     MOVE  "0"                        TO  P|AR[h.       
  1207  013290     MOVE  "END"                      TO  P|.         
  1208  013300     MOVE  萔|vO         TO  P|̑bZ[W. 
  1209  013310     CALL  CLOCO001                USING  IF-CHOCO001.            
  1210  013320*                                                                 
  1211  013330 IbZ[Wó|dwhs.                                    
  1212  013340     EXIT.                                                        
  1213  013350******************************************************************
  1214  013360*    caN[Y                  (NO 3.1)                      *
  1215  013370******************************************************************
  1216  013380 caN[Y                     SECTION.                    
  1217  013390 caN[Y|rs`qs.                                    
  1218  013400*                                                                 
Pro*COBOL: Release 9.2.0.1.0 - Production on  May 1 11:16:46 2000

Copyright (c) 1982, 2002, Oracle Corporation.  All rights reserved.

  1219  013410*--< J[\ N[Y >                                          
  1220  013420     EXEC SQL                                                     
  1221  013430        CLOSE  CUR1                                               
  1222  013440     END-EXEC.                                                    
  1223  013450*                                                                 
  1224  013460 caN[Y|dwhs.                                      
  1225  013470     EXIT.                                                        
  1226  013480******************************************************************
  1227  013490*    G[                                                  *
  1228  013500******************************************************************
  1229  013510 G[菈                       SECTION.                    
  1230  013520 G[菈|rs`qs.                                      
  1231  013530*                                                                 
  1232  013540     MOVE  "Y"                        TO  v|ُI|tO.   
  1233  013550     INITIALIZE                           IF-CHOCO001.            
  1234  013560*                                                                 
  1235  013570     EVALUATE  v|G[R[h                                   
  1236  013580        WHEN  -10                                                 
  1237  013590*--<       nq`bkdڑs >                                 
  1238  013600           MOVE  "1"                  TO  P|Cxg      
  1239  013610           MOVE  萔|vOhc TO  P|\[Xhc        
  1240  013620           MOVE  "9"                  TO  P|AR[h        
  1241  013630           MOVE  "CONNECT"            TO  P|          
  1242  013640           MOVE  SQLCODE              TO  P|f[^e        
  1243  013650           MOVE  SQLERRMC             TO  P|̑bZ[W  
  1244  013660           CALL  CLOCO001          USING  IF-CHOCO001             
  1245  013670*                                                                 
  1246  013680        WHEN  -20                                                 
  1247  013690*--<       e[uǍs >                                 
  1248  013700           MOVE  "1"                  TO  P|Cxg      
  1249  013710           MOVE  萔|vOhc TO  P|\[Xhc        
  1250  013720           MOVE  "9"                  TO  P|AR[h        
  1251  013730           MOVE  "LTRSMM"             TO  P|e[uhc  
  1252  013740           MOVE  "OPEN"           TO  P|          
  1253  013750           MOVE  SQLCODE              TO  P|f[^e        
  1254  013760           MOVE  SQLERRMC             TO  P|̑bZ[W  
  1255  013770           CALL  CLOCO001          USING  IF-CHOCO001             
  1256  013780*                                                                 
  1257  013790        WHEN  -30                                                 
  1258  013800*--<       ]pt@CI[vs >               
  1259  013810           MOVE  "1"                  TO  P|Cxg      
  1260  013820           MOVE  萔|vOhc TO  P|\[Xhc        
  1261  013830           MOVE  "9"                  TO  P|AR[h        
  1262  013840           MOVE  "FFUIS420"           TO  P|e[uhc  
  1263  013850           MOVE  "OPEN"               TO  P|          
  1264  013860           MOVE  SQLCODE              TO  P|f[^e        
  1265  013870           MOVE  SQLERRMC             TO  P|̑bZ[W  
  1266  013880           CALL  CLOCO001          USING  IF-CHOCO001             
  1267  013890*                                                                 
  1268  013900        WHEN  -40                                                 
  1269  013910*--<       Kpt@CI[vs >                       
  1270  013920           MOVE  "1"                  TO  P|Cxg      
  1271  013930           MOVE  萔|vOhc TO  P|\[Xhc        
  1272  013940           MOVE  "9"                  TO  P|AR[h        
  1273  013950           MOVE  "FFUISA01"           TO  P|e[uhc  
  1274  013960           MOVE  "OPEN"               TO  P|          
  1275  013970           CALL  CLOCO001          USING  IF-CHOCO001             
  1276  013980*                                                                 
  1277  013990        WHEN  -50                                                 
  1278  014000*--<       ǂݏs >                                         
  1279  014010           MOVE  "1"                  TO  P|Cxg      
  1280  014020           MOVE  萔|vOhc TO  P|\[Xhc        
Pro*COBOL: Release 9.2.0.1.0 - Production on  May 1 11:16:46 2000

Copyright (c) 1982, 2002, Oracle Corporation.  All rights reserved.

  1281  014030           MOVE  "9"                  TO  P|AR[h        
  1282  014040           MOVE  "FFUISA01"           TO  P|e[uhc  
  1283  014050           MOVE  "READ"               TO  P|          
  1284  014060           MOVE  v|             TO  P|f[^e        
  1285  014070           MOVE  SQLERRMC             TO  P|̑bZ[W  
  1286  014080           CALL  CLOCO001          USING  IF-CHOCO001             
  1287  014090*                                                                 
  1288  014100        WHEN  -60                                                 
  1289  014110*--<       J[\s >                                     
  1290  014120           MOVE  "1"                  TO  P|Cxg      
  1291  014130           MOVE  萔|vOhc TO  P|\[Xhc        
  1292  014140           MOVE  "9"                  TO  P|AR[h        
  1293  014150           MOVE  "LTRSMM"             TO  P|e[uhc  
  1294  014160           MOVE  "FEACH"              TO  P|          
  1295  014170           MOVE  SQLCODE              TO  P|f[^e        
  1296  014180           MOVE  SQLERRMC             TO  P|̑bZ[W  
  1297  014190           CALL  CLOCO001          USING  IF-CHOCO001             
  1298  014200                                                                  
  1299  014210        WHEN  -70                                                 
  1300  014220*--<       ă[X񐔒os >                             
  1301  014230           MOVE  "2"                  TO  P|Cxg      
  1302  014240           MOVE  萔|vOhc TO  P|\[Xhc        
  1303  014250           MOVE  "9"                  TO  P|AR[h        
  1304  014260           MOVE  "IKO002"             TO  P|e[uhc  
  1305  014270           MOVE  "SELECT"             TO  P|          
  1306  014280           MOVE  SQLCODE              TO  P|f[^e        
  1307  014290           MOVE  SQLERRMC             TO  P|̑bZ[W  
  1308  014300           CALL  CLOCO001          USING  IF-CHOCO001             
  1309  014301           MOVE  "N"                  TO v|ُI|tO     
  1310  014310*                                                                 
  1311  014320        WHEN  -80                                                 
  1312  014330*--<       R[hos  >                            
  1313  014340           MOVE  "2"                  TO  P|Cxg      
  1314  014350           MOVE  萔|vOhc TO  P|\[Xhc        
  1315  014360           MOVE  "9"                  TO  P|AR[h        
  1316  014370           MOVE  "IKO001"             TO  P|e[uhc  
  1317  014380           MOVE  "SELECT"             TO  P|          
  1318  014390           MOVE  SQLCODE              TO  P|f[^e        
  1319  014400           MOVE  SQLERRMC             TO  P|̑bZ[W  
  1320  014410           CALL  CLOCO001          USING  IF-CHOCO001             
  1321  014420           MOVE  "N"                  TO v|ُI|tO     
  1322  014430*                                                                 
  1323  014440        WHEN  -90                                                 
  1324  014450*--<       sNos >                   
  1325  014460           MOVE  "2"                  TO  P|Cxg      
  1326  014470           MOVE  萔|vOhc TO  P|\[Xhc        
  1327  014480           MOVE  "9"                  TO  P|AR[h        
  1328  014490           MOVE  "LTRSKM"             TO  P|e[uhc  
  1329  014500           MOVE  "SELECT"             TO  P|          
  1330  014510           CALL  CLOCO001          USING  IF-CHOCO001             
  1331  014520           MOVE  "N"                  TO v|ُI|tO     
  1332  014530*                                                                 
  1333  014540        WHEN  -100                                                
  1334  014550*--<       R[hos >                           
  1335  014560           MOVE  "2"                  TO  P|Cxg      
  1336  014570           MOVE  萔|vOhc TO  P|\[Xhc        
  1337  014580           MOVE  "9"                  TO  P|AR[h        
  1338  014590           MOVE  "IKO005"             TO  P|e[uhc  
  1339  014600           MOVE  "SELECT"             TO  P|          
  1340  014610           CALL  CLOCO001          USING  IF-CHOCO001             
  1341  014620           MOVE  "N"                  TO v|ُI|tO     
  1342  014630*                                                                 
Pro*COBOL: Release 9.2.0.1.0 - Production on  May 1 11:16:46 2000

Copyright (c) 1982, 2002, Oracle Corporation.  All rights reserved.

  1343  014640        WHEN  -110                                                
  1344  014650*--<       t@Co͏s >                                 
  1345  014660           MOVE  "1"                  TO  P|Cxg      
  1346  014670           MOVE  萔|vOhc TO  P|\[Xhc        
  1347  014680           MOVE  "9"                  TO  P|AR[h        
  1348  014690           MOVE  "FFUIS420"           TO  P|e[uhc  
  1349  014700           MOVE  "WRITE"              TO  P|          
  1350  014710           CALL  CLOCO001          USING  IF-CHOCO001             
  1351  014711           MOVE  "N"                  TO v|ُI|tO     
  1352  014720*                                                                 
  1353  014730        WHEN  OTHER                                               
  1354  014740           MOVE  "N"                  TO v|ُI|tO     
  1355  014750     END-EVALUATE.                                                
  1356  014760*                                                                 
  1357  014770     IF v|ُI|tO  =  "Y"                              
  1358  014780*                                                                 
  1359  014790        PERFORM  IbZ[Wo                               
  1360  014800*                                                                 
  1361  014810*--<    vOُĨ^[R[h >                      
  1362  014820        MOVE  萔|ُ          TO  PROGRAM-STATUS          
  1363  014830*                                                                 
  1364  014840        EXIT  PROGRAM                                             
  1365  014850     END-IF.                                                      
  1366  014860*                                                                 
  1367  014870 G[|dwhs.                                            
  1368  014880     EXIT.                                                        
  1369  014890******************************************************************
  1370  014900*                  END OF PROGRAM                                *
  1371  014910******************************************************************
t@C: C:\COB97\SOC\COBIS420\COBIS420.PCON[Y
Pro*COBOL: Release 9.2.0.1.0 - Production on  May 1 11:16:46 2000

Copyright (c) 1982, 2002, Oracle Corporation.  All rights reserved.


zXgϐ
--------------

01  DB-STRING                                           Charf(20)
  Z:\COB97\COPYLIB_DB\SQLCOM.CBL      3
  C:\COB97\SOC\COBIS420\COBIS420.PCO    269

01  PASSWD                                              Charf(10)
  Z:\COB97\COPYLIB_DB\SQLCOM.CBL      5
  C:\COB97\SOC\COBIS420\COBIS420.PCO    264    268

01  SQLSTATE                                            Charf(5)
  Z:\COB97\COPYLIB_DB\SQLCOM.CBL      2
  C:\COB97\SOC\COBIS420\COBIS420.PCO    263    267    328    417    523    624    842    933    975   1220

01  USERNAME                                            Charf(10)
  Z:\COB97\COPYLIB_DB\SQLCOM.CBL      4
  C:\COB97\SOC\COBIS420\COBIS420.PCO    264    268

01  hjnOOP|}                                  Charf(3)
  Z:\COB97\COPYLIB_DB\IKOTBL001.CBL      7
  C:\COB97\SOC\COBIS420\COBIS420.PCO    630

01  hjnOOP|VR[h                        Charf(7)
  Z:\COB97\COPYLIB_DB\IKOTBL001.CBL      6
  C:\COB97\SOC\COBIS420\COBIS420.PCO    629

01  hjnOOQ|_                              Charf(3)
  Z:\COB97\COPYLIB_DB\IKOTBL002.CBL     11
  C:\COB97\SOC\COBIS420\COBIS420.PCO    530

01  hjnOOQ|ă[X                          Decimal(2,0)
  Z:\COB97\COPYLIB_DB\IKOTBL002.CBL      8
  C:\COB97\SOC\COBIS420\COBIS420.PCO    529

01  hjnOOQ|_敪                            Charf(1)
  Z:\COB97\COPYLIB_DB\IKOTBL002.CBL     12
  C:\COB97\SOC\COBIS420\COBIS420.PCO    531

01  hjnOOT|R[h                      Charf(3)
  Z:\COB97\COPYLIB_DB\IKOTBL005.CBL      4
  C:\COB97\SOC\COBIS420\COBIS420.PCO    978

01  ksqrjl|z                              Decimal(13,0)
  Z:\COB97\COPYLIB_DB\LTRSKM.CBL     25
  C:\COB97\SOC\COBIS420\COBIS420.PCO    847

01  ksqrjl|ʔ                              Decimal(9,0)
  Z:\COB97\COPYLIB_DB\LTRSKM.CBL     17
  C:\COB97\SOC\COBIS420\COBIS420.PCO    938

01  ksqrjl||I                          Decimal(1,0)
  Z:\COB97\COPYLIB_DB\LTRSKM.CBL     18
  C:\COB97\SOC\COBIS420\COBIS420.PCO    849

01  ksqrjl||N                        Charf(6)
  Z:\COB97\COPYLIB_DB\LTRSKM.CBL     19
  C:\COB97\SOC\COBIS420\COBIS420.PCO    848    939

01  ksqrlj|菈R[h                    Decimal(2,0)
  Z:\COB97\COPYLIB_DB\LTRSMK.CBL     28
Pro*COBOL: Release 9.2.0.1.0 - Production on  May 1 11:16:46 2000

Copyright (c) 1982, 2002, Oracle Corporation.  All rights reserved.

  C:\COB97\SOC\COBIS420\COBIS420.PCO    421    539

01  ksqrlj|_mn                          Charf(10)
  Z:\COB97\COPYLIB_DB\LTRSMK.CBL      4
  C:\COB97\SOC\COBIS420\COBIS420.PCO    419

01  ksqrlj|ă[XR[h                        Decimal(1,0)
  Z:\COB97\COPYLIB_DB\LTRSMK.CBL      5
  C:\COB97\SOC\COBIS420\COBIS420.PCO    420    537

01  ksqrll|[XJn|I                    Decimal(1,0)
  Z:\COB97\COPYLIB_DB\LTRSMM.CBL     31
  C:\COB97\SOC\COBIS420\COBIS420.PCO    422

01  ksqrll|[XJn|N                  Charf(6)
  Z:\COB97\COPYLIB_DB\LTRSMM.CBL     32
  C:\COB97\SOC\COBIS420\COBIS420.PCO    423

01  ksqrll|z                          Decimal(13,0)
  Z:\COB97\COPYLIB_DB\LTRSMM.CBL     22
  C:\COB97\SOC\COBIS420\COBIS420.PCO    426

01  ksqrll|R[h                        Decimal(1,0)
  Z:\COB97\COPYLIB_DB\LTRSMM.CBL     26
  C:\COB97\SOC\COBIS420\COBIS420.PCO    436

01  ksqrll|菈R[h                    Decimal(2,0)
  Z:\COB97\COPYLIB_DB\LTRSMM.CBL     41
  C:\COB97\SOC\COBIS420\COBIS420.PCO    435

01  ksqrll|R[h                        Charf(2)
  Z:\COB97\COPYLIB_DB\LTRSMM.CBL      9
  C:\COB97\SOC\COBIS420\COBIS420.PCO    431

01  ksqrll|_mn                          Charf(10)
  Z:\COB97\COPYLIB_DB\LTRSMM.CBL      4
  C:\COB97\SOC\COBIS420\COBIS420.PCO    434

01  ksqrll|R[h                        Charf(8)
  Z:\COB97\COPYLIB_DB\LTRSMM.CBL      8
  C:\COB97\SOC\COBIS420\COBIS420.PCO    432    634

01  ksqrll|ă[XR[h                        Decimal(1,0)
  Z:\COB97\COPYLIB_DB\LTRSMM.CBL      5
  C:\COB97\SOC\COBIS420\COBIS420.PCO    430    433    854    945

01  ksqrll|f[^쐬|I                Decimal(1,0)
  Z:\COB97\COPYLIB_DB\LTRSMM.CBL     28
  C:\COB97\SOC\COBIS420\COBIS420.PCO    428

01  ksqrll|f[^쐬|N              Charf(6)
  Z:\COB97\COPYLIB_DB\LTRSMM.CBL     29
  C:\COB97\SOC\COBIS420\COBIS420.PCO    429

01  ksqrll|                            Decimal(13,0)
  Z:\COB97\COPYLIB_DB\LTRSMM.CBL     23
  C:\COB97\SOC\COBIS420\COBIS420.PCO    427

01  ksqrll||I                  Decimal(1,0)
  Z:\COB97\COPYLIB_DB\LTRSMM.CBL     24
  C:\COB97\SOC\COBIS420\COBIS420.PCO    424

Pro*COBOL: Release 9.2.0.1.0 - Production on  May 1 11:16:46 2000

Copyright (c) 1982, 2002, Oracle Corporation.  All rights reserved.

01  ksqrll||N                Charf(6)
  Z:\COB97\COPYLIB_DB\LTRSMM.CBL     25
  C:\COB97\SOC\COBIS420\COBIS420.PCO    425

01  vr|_mn                                  Charf(9)
  C:\COB97\SOC\COBIS420\COBIS420.PCO     97    535    852    943

01  vr|R[h                                Charf(3)
  C:\COB97\SOC\COBIS420\COBIS420.PCO     95    855    946    982

Pro*COBOL: Release 9.2.0.1.0 - Production on  May 1 11:16:46 2000

Copyright (c) 1982, 2002, Oracle Corporation.  All rights reserved.


SQLʎq
---------------

CUR1                  CURSOR                        
  C:\COB97\SOC\COBIS420\COBIS420.PCO    296    329    418   1221    296

Pro*COBOL: Release 9.2.0.1.0 - Production on  May 1 11:16:46 2000

Copyright (c) 1982, 2002, Oracle Corporation.  All rights reserved.



                              vRpCEIvV
-------------------------------------------------------------------------------
IvV   ݂̐ݒl         ݒ
-------------------------------------------------------------------------------
asacc             no                ftHg                                  
assume_sqlcode    no                ftHg                                  
auto_connect      no                ftHg                                  
close_on_commit   yes               mode                                        
comp5             yes               D:\oracle\ora90\precomp\admin\pcbcfg.cfg    
config            default config    ftHg                                  
date_format       local             ftHg                                  
dbms              native            ftHg                                  
declare_section   yes               mode                                        
define            *Ȃ*            ftHg                                  
dynamic           ansi              mode                                        
end_of_fetch      100               mode                                        
eol_padding       yes               ftHg                                  
errors            yes               ftHg                                  
fips              no                ftHg                                  
format            ansi              ftHg                                  
hold_cursor       no                ftHg                                  
host              cobol             ftHg                                  
iname             C:\COB97\SOC\COBISR}hCCO                            
include           Z:\COB97\COPYLIB  D:\oracle\ora90\precomp\admin\pcbcfg.cfg    
                  Z:\COB97\COPYLIB_DD:\oracle\ora90\precomp\admin\pcbcfg.cfg    
                  *Ȃ*            D:\oracle\ora90\precomp\admin\pcbcfg.cfg    
ireclen           132               D:\oracle\ora90\precomp\admin\pcbcfg.cfg    
litdelim          quote             ftHg                                  
lname             *Ȃ*            ftHg                                  
lreclen           132               ftHg                                  
ltype             long              ftHg                                  
maxliteral        160               D:\oracle\ora90\precomp\admin\pcbcfg.cfg    
maxopencursors    10                ftHg                                  
mode              ANSI              D:\oracle\ora90\precomp\admin\pcbcfg.cfg    
nested            yes               ftHg                                  
nls_local         yes               D:\oracle\ora90\precomp\admin\pcbcfg.cfg    
oname             COBIS420.COB      R}hC                              
oraca             no                ftHg                                  
oreclen           80                ftHg                                  
pagelen           66                ftHg                                  
picx              charf             ftHg                                  
prefetch          1                 ftHg                                  
release_cursor    no                ftHg                                  
select_error      yes               ftHg                                  
sqlcheck          FULL              D:\oracle\ora90\precomp\admin\pcbcfg.cfg    
threads           no                ftHg                                  
type_code         ansi              mode                                        
unsafe_null       no                ftHg                                  
userid            DENGXD/DXD@FIP    D:\oracle\ora90\precomp\admin\pcbcfg.cfg    
varchar           no                ftHg                                  
xref              yes               ftHg                                  
Pro*COBOL: Release 9.2.0.1.0 - Production on  May 1 11:16:46 2000

Copyright (c) 1982, 2002, Oracle Corporation.  All rights reserved.


v\
----------

^[ER[h: 0
dv Ił̃bZ[W: 0
dv Wł̃bZ[W: 0
dv Eł̃bZ[W: 0
dv Fł̃bZ[W: 0
̓C̐: 1626
錾ꂽzXgϐ̐: 264
J[\̐: 1
̐: 0
gpő僁[(oCg): 352910
