Pro*COBOL: Release 9.2.0.1.0 - Production on  Apr 8 16:52:26 2005

Copyright (c) 1982, 2002, Oracle Corporation.  All rights reserved.

t@C: COBIS660.PCOI[v
     1  000010******************************************************************
     2  000020*         CP(A)                                     *
     3  000030*      1. vO  : Ǘ^M_ڍs                   *
     4  000040*      2. vOID  : COBIS660                               *
     5  000050*      3. Tv      : @ ^M({E)SΏۂƂ    *
     6  000060*                         ^M()PʂɊǗ^M_쐬 *
     7  000070*                                                                *
     8  000080*                         A ŗ擾B        *
     9  000090*                                                                *
    10  000100*                         B ۔Fɓo^ꂽ_              *
    11  000110*                            邩ۂ_e擾B  *
    12  000120*                                                                *
    13  000130*      4. 쐬        :                                  *
    14  000140*      5. 쐬        : 2005.04.04                             *
    15  000150******************************************************************
    16  000160*                                                                 
    17  000170******************************************************************
    18  000180*    hcdmshehb`shnm  chuhrhnm              *
    19  000190******************************************************************
    20  000200 IDENTIFICATION                       DIVISION.                   
    21  000210*                                                                 
    22  000220 PROGRAM-ID.                          COBIS660.                   
    23  000230*                                                                 
    24  000240******************************************************************
    25  000250*    dmuhqnmldms        chuhrhnm              *
    26  000260******************************************************************
    27  000270 ENVIRONMENT                          DIVISION.                   
    28  000280*                                                                 
    29  000290******************************************************************
    30  000300*    hmots|ntsots      rdbshnm                *
    31  000310******************************************************************
    32  000320 INPUT-OUTPUT                         SECTION.                    
    33  000330*                                                                 
    34  000340 FILE-CONTROL.                                                    
    35  000350     SELECT    o̓t@C           ASSIGN    TO     U11        
    36  000360     FILE      STATUS     IS          v|t@C            
    37  000370     ORGANIZATION         IS          LINE      SEQUENTIAL.       
    38  000380*                                                                 
    39  000390******************************************************************
    40  000400*    c`s`                      chuhrhnm              *
    41  000410******************************************************************
    42  000420 DATA                                 DIVISION.                   
    43  000430*                                                                 
    44  000440******************************************************************
    45  000450*    ehkd                      rdbshnm                *
    46  000460******************************************************************
    47  000470 FILE                                 SECTION.                    
    48  000480*                                                                 
    49  000490*----------------------------------------------------------------*
    50  000500*    o̓t@C                                                *
    51  000510*----------------------------------------------------------------*
    52  000520 FD  o̓t@C                                                 
    53  000530     LABEL     RECORD     IS          STANDARD                    
    54  000540     BLOCK     CONTAINS   0           RECORDS.                    
    55  000550*                                                                 
    56  000560 01  ó|R[h.                                              
    57  000570     COPY  CISUF660  REPLACING  ==()==  BY  ==ó|==.           
    58  000580*                                                                 
    59  000590******************************************************************
    60  000600*  vnqjhmf|rsnq`fd  rdbshnm                *
    61  000610******************************************************************
Pro*COBOL: Release 9.2.0.1.0 - Production on  Apr 8 16:52:26 2005

Copyright (c) 1982, 2002, Oracle Corporation.  All rights reserved.

    62  000620 WORKING-STORAGE                      SECTION.                    
    63  000630*                                                                 
    64  000640*----------------------------------------------------------------*
    65  000650*    zXgϐ`GA                                        *
    66  000660*----------------------------------------------------------------*
    67  000670     EXEC  SQL  BEGIN  DECLARE        SECTION  END-EXEC.          
    68  000680*                                                                 
    69  000690 01  vr|zXgϐ.                                            
    70  000700     03  vr|Ǘ^MR[h       PIC  X(08)  VALUE  SPACE.   
    71  000710     03  vr|VR[h         PIC  X(07)  VALUE  SPACE.   
    72  000720     03  vr|ă[X           PIC  9(02)  VALUE  ZERO.    
    73  000730     03  vr|_               PIC  X(03)  VALUE  SPACE.   
    74  000740*                                                                 
    75  000750*--< nq`bkdʕϐ >                                       
    76  000760     EXEC  SQL  INCLUDE  SQLCOM.CBL            END-EXEC.          
    77  000770*                                                                 
    78  000780*--< nq`bkd  rpks >                               
t@C: Z:\COB97\COPYLIB_DB\SQLCOM.CBLI[v
     1  000010*--rpkʕϐ
     2  000030   01  SQLSTATE                      PIC  X(005).
     3  000040   01  DB-STRING                     PIC  X(020).
     4  000050   01  USERNAME                      PIC  X(010).
     5  000060   01  PASSWD                        PIC  X(010).
     6  000070*
t@C: Z:\COB97\COPYLIB_DB\SQLCOM.CBLN[Y
    79  000790     EXEC  SQL  INCLUDE  SQLCA.COB             END-EXEC.          
    80  000800*                                                                 
    81  000810*--< ^M({) >                                                 
    82  000820     EXEC  SQL  INCLUDE  YOSHINKIHON.CBL       END-EXEC.          
    83  000830*                                                                 
    84  000840*--< ^M() >                                                 
t@C: Z:\COB97\COPYLIB_DB\YOSHINKIHON.CBLI[v
     1  000010************************************************
     2  000020* ^M({)(YOSHINKIHON)
     3  000030************************************************
     4  000040 01  xnrghmjhgnm|Ǘ^MR[h  PIC  X(008).
     5  000050 01  xnrghmjhgnm|Ǘ^M敪  PIC  X(001).
     6  000060 01  xnrghmjhgnm|^M敪  PIC  X(001).
     7  000070 01  xnrghmjhgnm|̓  PIC  X(008).
     8  000080 01  xnrghmjhgnm|敪  PIC  X(001).
     9  000090 01  xnrghmjhgnm|Ǘ^M於  PIC  X(080).
    10  000100 01  xnrghmjhgnm|Lϗ  PIC S9(013) COMP-3.
    11  000110 01  xnrghmjhgnm|ϗ  PIC S9(013) COMP-3.
    12  000120 01  xnrghmjhgnm|wxy敪  PIC  X(001).
    13  000130 01  xnrghmjhgnm|P  PIC  X(112).
    14  000140 01  xnrghmjhgnm|Q  PIC  X(112).
    15  000150 01  xnrghmjhgnm|R  PIC  X(112).
    16  000160 01  xnrghmjhgnm|S  PIC  X(112).
    17  000170 01  xnrghmjhgnm|T  PIC  X(112).
    18  000180 01  xnrghmjhgnm|U  PIC  X(112).
    19  000190 01  xnrghmjhgnm|SۂP  PIC  X(010).
    20  000200 01  xnrghmjhgnm|SۂQ  PIC  X(010).
    21  000210 01  xnrghmjhgnm|SۂR  PIC  X(010).
t@C: Z:\COB97\COPYLIB_DB\YOSHINKIHON.CBLN[Y
    85  000850     EXEC  SQL  INCLUDE  YOSHINMEISAI.CBL      END-EXEC.          
    86  000860*                                                                 
    87  000870*--< _e >                                                   
t@C: Z:\COB97\COPYLIB_DB\YOSHINMEISAI.CBLI[v
     1  000010************************************************
     2  000020* ^M()(YOSHINMEISAI)
     3  000030************************************************
     4  000040 01  xnrghmldhr`h|Ǘ^MR[h  PIC  X(008).
Pro*COBOL: Release 9.2.0.1.0 - Production on  Apr 8 16:52:26 2005

Copyright (c) 1982, 2002, Oracle Corporation.  All rights reserved.

     5  000050 01  xnrghmldhr`h|Ǘ^M敪  PIC  X(001).
     6  000060 01  xnrghmldhr`h|^M敪  PIC  X(001).
     7  000070 01  xnrghmldhr`h|̓  PIC  X(008).
     8  000080 01  xnrghmldhr`h|_mn  PIC  X(009).
     9  000090 01  xnrghmldhr`h|R[h  PIC  X(002).
    10  000100 01  xnrghmldhr`h|ƏR[h  PIC  X(004).
    11  000110 01  xnrghmldhr`h|tOP  PIC  X(002).
    12  000120 01  xnrghmldhr`h|tOQ  PIC  X(002).
    13  000130 01  xnrghmldhr`h|  PIC  X(060).
    14  000140 01  xnrghmldhr`h|_  PIC  X(008).
    15  000150 01  xnrghmldhr`h|  PIC  X(008).
    16  000160 01  xnrghmldhr`h|  PIC  X(008).
    17  000170 01  xnrghmldhr`h|؊Jn  PIC  X(008).
    18  000180 01  xnrghmldhr`h|ݕtʌ  PIC S9(013) COMP-3.
    19  000190 01  xnrghmldhr`h|ғY  PIC S9(013) COMP-3.
    20  000200 01  xnrghmldhr`h|i  PIC S9(013) COMP-3.
    21  000210 01  xnrghmldhr`h|Mpیtۋ敪  PIC  X(001).
    22  000220 01  xnrghmldhr`h|Mpی  PIC S9(013) 
    23  000230                                                     COMP-3.
    24  000240 01  xnrghmldhr`h|_z  PIC S9(013) COMP-3.
    25  000250 01  xnrghmldhr`h|cz  PIC S9(013) COMP-3.
    26  000260 01  xnrghmldhr`h|  PIC  X(002).
    27  000270 01  xnrghmldhr`h|Jn  PIC  X(001).
    28  000280 01  xnrghmldhr`h|׎x  PIC  X(003).
    29  000290 01  xnrghmldhr`h|vZ  PIC  X(001).
    30  000300 01  xnrghmldhr`h|TCN  PIC  X(002).
    31  000310 01  xnrghmldhr`h|k  PIC S9(013) COMP-3.
    32  000320 01  xnrghmldhr`h|Nx敪  PIC  X(001).
    33  000330 01  xnrghmldhr`h|̍c  PIC S9(013) COMP-3.
    34  000340 01  xnrghmldhr`h|̌{c  PIC S9(013) COMP-3.
    35  000350 01  xnrghmldhr`h|c  PIC S9(013) COMP-3.
    36  000360 01  xnrghmldhr`h|{c  PIC S9(013) COMP-3.
    37  000370 01  xnrghmldhr`h|mc  PIC S9(013) COMP-3.
    38  000380 01  xnrghmldhr`h|m{c  PIC S9(013) COMP-3.
    39  000390 01  xnrghmldhr`h|{  PIC S9(013) COMP-3.
    40  000400 01  xnrghmldhr`h|  PIC S9(013) COMP-3.
    41  000410 01  xnrghmldhr`h|  PIC S9(013) COMP-3.
    42  000420 01  xnrghmldhr`h|a  PIC S9(013) COMP-3.
    43  000430 01  xnrghmldhr`h|pz  PIC S9(013) COMP-3.
    44  000440 01  xnrghmldhr`h|XVt  PIC  X(008).
    45  000450 01  xnrghmldhr`h|Œ藘  PIC S9(003)V9(8) 
    46  000460                                                    COMP-3.
    47  000470 01  xnrghmldhr`h|ϓ敪  PIC  X(001).
    48  000480 01  xnrghmldhr`h|Xvbh  PIC S9(003)V9(8) 
    49  000490                                                    COMP-3.
    50  000500 01  xnrghmldhr`h|A敪  PIC  X(001).
t@C: Z:\COB97\COPYLIB_DB\YOSHINMEISAI.CBLN[Y
    88  000880     EXEC  SQL  INCLUDE  D31KYK.CBL            END-EXEC.          
    89  000890*                                                                 
    90  000900*--<  >                                                       
t@C: Z:\COB97\COPYLIB_DB\D31KYK.CBLI[v
     1        *****************************************************************
     2        *   _e(D31KYK_TBL)
     3        *****************************************************************
     4         01  _e.
     5             03  cRP|_ԍ      PIC  X(010).
     6             03  cRP|ă[X  PIC S9(002) PACKED-DECIMAL.
     7             03  cRP|ϔԍ      PIC S9(007) PACKED-DECIMAL.
     8             03  cRP|ϔԍ}  PIC S9(002) PACKED-DECIMAL.
     9             03  cRP|R[h  PIC  X(009).
    10             03  cRP|gcٓ    PIC  X(008).
    11             03  cRP|ݕts\
Pro*COBOL: Release 9.2.0.1.0 - Production on  Apr 8 16:52:26 2005

Copyright (c) 1982, 2002, Oracle Corporation.  All rights reserved.

    12                                       PIC  X(008).
    13             03  cRP|N    PIC  X(008).
    14             03  cRP|nN    PIC  X(008).
    15             03  cRP|_Jn    PIC  X(008).
    16             03  cRP|_I    PIC  X(008).
    17             03  cRP|          PIC S9(003) PACKED-DECIMAL.
    18             03  cRP|_񌏖      PIC  X(060).
    19             03  cRP|Gh[UR[h
    20                                       PIC  X(009).
    21             03  cRP|_敪      PIC  X(001).
    22             03  cRP|Љ[g    PIC  X(001).
    23             03  cRP|SۃR[h
    24                                       PIC  X(004).
    25             03  cRP|S҃R[h  PIC  X(008).
    26             03  cRP|ϑ        PIC  X(001).
    27             03  cRP|z      PIC S9(013) PACKED-DECIMAL.
    28             03  cRP|_񑍊z      PIC S9(013) PACKED-DECIMAL.
    29             03  cRP|ă[X
    30                                       PIC S9(013) PACKED-DECIMAL.
    31             03  cRP|ă[X敪
    32                                       PIC  X(001).
    33             03  cRP|Mpی敪  PIC  X(001).
    34             03  cRP|Sۋ敪      PIC  X(001).
    35             03  cRP|敪      PIC  X(001).
    36             03  cRP|_R[h  PIC  X(005).
    37             03  cRP|劲R[h
    38                                       PIC  X(009).
    39             03  cRP|        PIC S9(002)V9(008) PACKED-DECIMAL.
    40             03  cRP|[U  PIC S9(002)V9(008) PACKED-DECIMAL.
    41             03  cRP|v    PIC S9(002)V9(008) PACKED-DECIMAL.
    42             03  cRP|Г      PIC S9(002)V9(008) PACKED-DECIMAL.
    43             03  cRP|R[h  PIC  X(005).
    44             03  cRP|쐬敪
    45                                       PIC  X(001).
    46             03  cRP|      PIC  X(060).
    47             03  cRP|P@
    48                                       PIC  X(001).
    49             03  cRP|PTCg
    50                                       PIC S9(002) PACKED-DECIMAL.
    51             03  cRP|P  PIC S9(002) PACKED-DECIMAL.
    52             03  cRP|P
    53                                       PIC S9(002) PACKED-DECIMAL.
    54             03  cRP|U֊JnN  PIC  X(006).
    55             03  cRP|O敪      PIC  X(001).
    56             03  cRP|敪      PIC  X(001).
    57             03  cRP|cƃRgP
    58                                       PIC  X(080).
    59             03  cRP|cƃRgQ
    60                                       PIC  X(080).
    61             03  cRP|ԃtO    PIC  X(001).
    62             03  cRP|ēt敪
    63                                       PIC  X(001).
    64             03  cRP|ē񓚋敪
    65                                       PIC  X(001).
    66             03  cRP|_敪    PIC  X(001).
    67             03  cRP|ky敪  PIC  X(001).
    68             03  cRP|kyN  PIC  X(006).
    69             03  cRP|Gg
    70                                       PIC  X(008).
    71             03  cRP|    PIC  X(008).
    72             03  cRP|Gg
    73                                       PIC  X(008).
Pro*COBOL: Release 9.2.0.1.0 - Production on  Apr 8 16:52:26 2005

Copyright (c) 1982, 2002, Oracle Corporation.  All rights reserved.

    74             03  cRP|N  PIC  X(006).
    75             03  cRP|N  PIC  X(006).
    76             03  cRP|  PIC S9(003) PACKED-DECIMAL.
    77             03  cRP|ŐV  PIC S9(003) PACKED-DECIMAL.
    78             03  cRP|ŏIԍ  PIC S9(004) PACKED-DECIMAL.
    79             03  cRP|ă[Xf[^쐬敪
    80                                       PIC  X(001).
    81             03  cRP|ă[X쐬N
    82                                       PIC  X(008).
    83             03  cRP|[XO
    84                                       PIC S9(002) PACKED-DECIMAL.
    85             03  cRP|쐬tO
    86                                       PIC  X(001).
    87             03  cRP|O쐬tO
    88                                       PIC  X(001).
    89             03  cRP|σtO
    90                                       PIC  X(001).
    91             03  cRP|OσtO
    92                                       PIC  X(001).
    93             03  cRP|\tO
    94                                       PIC  X(001).
    95             03  cRP|tO    PIC  X(001).
    96             03  cRP|N    PIC  X(008).
    97             03  cRP|    PIC S9(003) PACKED-DECIMAL.
    98             03  cRP|mF      PIC  X(001).
    99             03  cRP|܂ߒP    PIC  X(001).
   100             03  cRP|@  PIC  X(001).
   101             03  cRP|_ԉ񐔈L
   102                                       PIC  X(001).
   103             03  cRP|Gg
   104                                       PIC  X(008).
   105             03  cRP|Gg
   106                                       PIC  X(008).
   107             03  cRP|񏈗N  PIC  X(006).
   108             03  cRP|N  PIC  X(006).
   109             03  cRP|ă[XԊu
   110                                       PIC S9(002) PACKED-DECIMAL.
   111             03  cRP|ă[XԊu
   112                                       PIC S9(002) PACKED-DECIMAL.
   113             03  cRP|XVN    PIC  X(008).
   114             03  cRP|XV      PIC  X(008).
   115             03  cRP|XV        PIC  X(008).
   116             03  cRP|    PIC S9(002)V9(008) PACKED-DECIMAL.
   117             03  cRP|ez    PIC S9(013) PACKED-DECIMAL.
   118             03  cRP|z  PIC S9(013) PACKED-DECIMAL.
   119             03  cRP|_񑍊z  PIC S9(013) PACKED-DECIMAL.
   120             03  cRP|ȍ~TCg
   121                                       PIC S9(002) PACKED-DECIMAL.
   122             03  cRP|ȍ~    PIC S9(002) PACKED-DECIMAL.
   123             03  cRP|ȍ~Ԋu  PIC S9(002) PACKED-DECIMAL.
   124             03  cRP|ԍ    PIC  X(010).
   125             03  cRP|Gg
   126                                       PIC  X(008).
   127             03  cRP|񏈗N  PIC  X(006).
   128             03  cRP|Gg
   129                                       PIC  X(008).
   130             03  cRP|N
   131                                       PIC  X(006).
   132             03  cRP|\tO
   133                                       PIC  X(001).
   134             03  cRP|\Gg
   135                                       PIC  X(008).
Pro*COBOL: Release 9.2.0.1.0 - Production on  Apr 8 16:52:26 2005

Copyright (c) 1982, 2002, Oracle Corporation.  All rights reserved.

   136             03  cRP|N  PIC  X(006).
   137             03  cRP|ă[XGg
   138                                       PIC  X(008).
   139             03  cRP|ă[XN
   140                                       PIC  X(006).
   141             03  cRP|ă[XGg
   142                                       PIC  X(008).
   143             03  cRP|ă[XN
   144                                       PIC  X(006).
   145             03  cRP|pGg
   146                                       PIC  X(008).
   147             03  cRP|pN  PIC  X(006).
   148             03  cRP|pGg
   149                                       PIC  X(008).
   150             03  cRP|pN
   151                                       PIC  X(006).
   152             03  cRP|pGg
   153                                       PIC  X(008).
   154             03  cRP|pN  PIC  X(006).
   155             03  cRP|ύXGg
   156                                       PIC  X(008).
   157             03  cRP|ύXN
   158                                       PIC  X(006).
   159             03  cRP|Ǘx
   160                                       PIC  X(001).
   161             03  cRP|_񗿗      PIC S9(002)V9(008) PACKED-DECIMAL.
   162             03  cRP|ez        PIC S9(013) PACKED-DECIMAL.
   163             03  cRP|_񗿗  PIC S9(002)V9(008) PACKED-DECIMAL.
   164             03  cRP|ȍ~@  PIC  X(001).
   165             03  cRP|TCg    PIC S9(002) PACKED-DECIMAL.
   166             03  cRP|Ԋu      PIC S9(002) PACKED-DECIMAL.
   167             03  cRP|    PIC S9(002) PACKED-DECIMAL.
   168             03  cRP|_敪  PIC  X(001).
   169             03  cRP|ӔC敪      PIC  X(001).
   170             03  cRP|E敪      PIC  X(001).
   171             03  cRP|o͋敪
   172                                       PIC  X(001).
   173             03  cRP|ē[敪
   174                                       PIC  X(001).
   175             03  cRP|ă[XtO
   176                                       PIC  X(001).
   177             03  cRP|ă[Xp敪
   178                                       PIC  X(001).
   179             03  cRP|_񏑎      PIC  X(001).
   180             03  cRP|ۊǏꏊ  PIC  X(001).
   181             03  cRP|敪    PIC  X(001).
   182             03  cRP|sYSېݒz
   183                                       PIC S9(013) PACKED-DECIMAL.
   184             03  cRP|L،Sېݒz
   185                                       PIC S9(013) PACKED-DECIMAL.
   186             03  cRP|̑Sېݒz
   187                                       PIC S9(013) PACKED-DECIMAL.
   188             03  cRP|ۏؐlL敪
   189                                       PIC  X(001).
   190             03  cRP|cΏۊOtO
   191                                       PIC  X(001).
   192             03  cRP|یЋ敪  PIC  X(004).
   193             03  cRP|ی    PIC S9(013) PACKED-DECIMAL.
   194             03  cRP|tۊJnN
   195                                       PIC  X(008).
   196             03  cRP|͒S҃R[h
   197                                       PIC  X(008).
Pro*COBOL: Release 9.2.0.1.0 - Production on  Apr 8 16:52:26 2005

Copyright (c) 1982, 2002, Oracle Corporation.  All rights reserved.

   198             03  cRP|R[h
   199                                       PIC  X(009).
   200             03  cRP|⍇ԍ    PIC  X(010).
   201             03  cRP|ă[X敪  PIC  X(001).
   202             03  cRP|_ԍ    PIC  X(010).
   203             03  cRP|wIt[X敪
   204                                       PIC  X(001).
   205             03  cRP|ă[X\L敪
   206                                       PIC  X(001).
   207             03  cRP|ă[X\tO
   208                                       PIC  X(001).
   209             03  cRP|p\tO
   210                                       PIC  X(001).
   211             03  cRP|\A      PIC S9(002) PACKED-DECIMAL.
   212             03  cRP|XPtO  PIC  X(001).
   213             03  cRP|evz|\  PIC S9(013) PACKED-DECIMAL.
   214             03  cRP|x׏쐬σtO
   215                                       PIC  X(001).
   216             03  cRP|x׏v
   217                                       PIC  X(001).
   218             03  cRP|\N    PIC  X(008).
   219             03  cRP|Ώی{z    PIC S9(013) PACKED-DECIMAL.
   220             03  cRP|ŗ敪  PIC  X(002).
   221             03  cRP|\o͔N
   222                                       PIC  X(008).
   223             03  cRP|ă[X\o͔N
   224                                       PIC  X(008).
   225             03  cRP|      PIC  X(001).
   226             03  cRP|ă[XTCg
   227                                       PIC S9(002) PACKED-DECIMAL.
   228             03  cRP|ă[X
   229                                       PIC S9(002) PACKED-DECIMAL.
   230             03  cRP|Gێ痿    PIC S9(013) PACKED-DECIMAL.
   231             03  cRP|G̑    PIC S9(013) PACKED-DECIMAL.
   232             03  cRP|GMpی  PIC S9(013) PACKED-DECIMAL.
   233             03  cRP|G̑    PIC S9(013) PACKED-DECIMAL.
   234             03  cRP|tO
   235                                       PIC  X(001).
   236             03  cRP|tO
   237                                       PIC  X(001).
   238             03  cRP|ă[X敪
   239                                       PIC  X(001).
   240             03  cRP|_񏑔sσtO
   241                                       PIC  X(001).
   242             03  cRP|sσtO
   243                                       PIC  X(001).
   244             03  cRP|̑sσtO
   245                                       PIC  X(001).
   246             03  cRP|cƃRgR
   247                                       PIC  X(080).
   248             03  cRP|Г敪  PIC  X(001).
   249             03  cRP|Gz    PIC S9(013) PACKED-DECIMAL.
   250             03  cRP|I[vuCh敪
   251                                       PIC  X(001).
   252             03  cRP|敪  PIC  X(001).
   253             03  cRP|PNx_    PIC  X(001).
   254             03  cRP|obN    PIC  X(001).
   255             03  cRP|۔F敪      PIC  X(001).
   256             03  cRP|On敪    PIC  X(001).
   257             03  cRP|ېŋ敪    PIC  X(001).
   258             03  cRP|敪      PIC  X(001).
   259             03  cRP|COݒu敪  PIC  X(001).
Pro*COBOL: Release 9.2.0.1.0 - Production on  Apr 8 16:52:26 2005

Copyright (c) 1982, 2002, Oracle Corporation.  All rights reserved.

   260             03  cRP|Rg  PIC  X(040).
   261             03  cRP|vZ@
   262                                       PIC  X(001).
   263             03  cRP|\    PIC  X(008).
   264             03  cRP|\_zZtO
   265                                       PIC  X(001).
   266             03  cRP|Љ  PIC  X(009).
   267             03  cRP|Љ_  PIC  X(005).
   268             03  cRP|Љasl  PIC  X(004).
   269             03  cRP|Љ旻X    PIC  X(004).
   270             03  cRP|Љs    PIC  X(004).
   271             03  cRP|ЉxX    PIC  X(003).
   272             03  cRP|        PIC  X(002).
   273             03  cRP|_RP
   274                                       PIC  X(080).
   275             03  cRP|_RQ
   276                                       PIC  X(080).
   277             03  cRP|_\sσtO
   278                                       PIC  X(001).
   279             03  cRP|ٓo^\tO
   280                                       PIC  X(001).
   281             03  cRP|_o^\tO
   282                                       PIC  X(001).
   283             03  cRP|o^\tO
   284                                       PIC  X(001).
   285             03  cRP|_\tO
   286                                       PIC  X(001).
   287             03  cRP|\tO
   288                                       PIC  X(001).
   289             03  cRP|ύX\tO
   290                                       PIC  X(001).
   291             03  cRP|ύXtO    PIC  X(001).
   292             03  cRP|ύXN    PIC  X(008).
   293             03  cRP|R[h
   294                                       PIC  X(002).
   295             03  cRP|ʑ敪  PIC  X(001).
   296             03  cRP|x[X    PIC  X(001).
   297             03  cRP|{葍z
   298                                       PIC S9(002)V9(008) PACKED-DECIMAL.
   299             03  cRP|葍z
   300                                       PIC S9(002)V9(008) PACKED-DECIMAL.
   301             03  cRP|ezz  PIC S9(013) PACKED-DECIMAL.
   302             03  cRP|ʎГ  PIC S9(002)V9(008) PACKED-DECIMAL.
   303             03  cRP|ʊ{
   304                                       PIC S9(002)V9(008) PACKED-DECIMAL.
   305             03  cRP|ʎ
   306                                       PIC S9(002)V9(008) PACKED-DECIMAL.
   307             03  cRP|ʑez    PIC S9(013) PACKED-DECIMAL.
   308             03  cRP|ʊ{葍z
   309                                       PIC S9(002)V9(008) PACKED-DECIMAL.
   310             03  cRP|ʎ葍z
   311                                       PIC S9(002)V9(008) PACKED-DECIMAL.
   312             03  cRP|ʑezЕ
   313                                       PIC S9(013) PACKED-DECIMAL.
   314             03  cRP|ۑtO
   315                                       PIC  X(001).
   316             03  cRP|o^N    PIC  X(008).
   317             03  cRP|o^      PIC  X(008).
   318             03  cRP|o^S    PIC  X(008).
   319             03  cRP|][XgR[h
   320                                       PIC  X(003).
   321             03  cRP|萔    PIC S9(013) PACKED-DECIMAL.
Pro*COBOL: Release 9.2.0.1.0 - Production on  Apr 8 16:52:26 2005

Copyright (c) 1982, 2002, Oracle Corporation.  All rights reserved.

   322             03  cRP|Ɩ敪      PIC  X(001).
   323             03  cRP|ߋ`敪  PIC  X(001).
   324             03  cRP|㗝      PIC  X(001).
   325             03  cRP|z      PIC S9(013) PACKED-DECIMAL.
   326             03  cRP|ϓ敪  PIC  X(001).
   327             03  cRP|A敪  PIC  X(002).
   328             03  cRP|        PIC S9(002)V9(008) PACKED-DECIMAL.
   329             03  cRP|ݕtz      PIC S9(013) PACKED-DECIMAL.
   330             03  cRP|ݕt      PIC S9(002)V9(008) PACKED-DECIMAL.
   331             03  cRP|gr敪  PIC  X(002).
   332             03  cRP|gr  PIC  X(080).
   333             03  cRP|xϑ`
   334                                       PIC  X(001).
   335             03  cRP|Z@      PIC  X(001).
   336             03  cRP|ԍϏ      PIC  X(001).
   337             03  cRP|[Xދ敪
   338                                       PIC  X(001).
   339             03  cRP|YȖڋ敪  PIC  X(001).
   340             03  cRP|dv敪
   341                                       PIC  X(001).
   342             03  cRP|On    PIC S9(002)V9(008) PACKED-DECIMAL.
   343             03  cRP|gvIvV
   344                                       PIC  X(001).
   345             03  cRP|~敪  PIC  X(001).
   346             03  cRP|eύX\A
   347                                       PIC S9(002) PACKED-DECIMAL.
   348             03  cRP|p  PIC  X(001).
   349             03  cRP|p敪      PIC  X(001).
   350             03  cRP|敪  PIC  X(001).
   351             03  cRP|Pډ
   352                                       PIC  X(040).
   353             03  cRP|Qڈȍ~
   354                                       PIC  X(040).
   355             03  cRP|nt[X敪
   356                                       PIC  X(001).
   357             03  cRP|cTCg
   358                                       PIC S9(002)V9(002) PACKED-DECIMAL.
   359             03  cRP|敪  PIC  X(001).
   360             03  cRP|x    PIC S9(002) PACKED-DECIMAL.
   361             03  cRP|Q
   362                                       PIC  X(080).
   363             03  cRP|ԍ    PIC  X(006).
   364             03  cRP|      PIC  X(007).
   365             03  cRP|Mݒ  PIC  X(008).
   366             03  cRP|MI    PIC  X(008).
   367             03  cRP|敪
   368                                       PIC  X(001).
   369             03  cRP|\敪  PIC  X(001).
   370             03  cRP|    PIC  X(008).
   371             03  cRP|E敪  PIC  X(001).
   372             03  cRP|n֎~  PIC  X(001).
   373             03  cRP|_ԍ  PIC  X(016).
   374             03  cRP|ă[Xq
   375                                       PIC S9(004) PACKED-DECIMAL.
   376             03  cRP|ă[X
   377                                       PIC S9(004) PACKED-DECIMAL.
   378             03  cRP|cƃRgS
   379                                       PIC  X(080).
   380             03  cRP|VK敪    PIC  X(001).
   381             03  cRP|e敪    PIC  X(001).
   382             03  cRP|    PIC S9(002)V9(008) PACKED-DECIMAL.
   383             03  cRP|ʑOn
Pro*COBOL: Release 9.2.0.1.0 - Production on  Apr 8 16:52:26 2005

Copyright (c) 1982, 2002, Oracle Corporation.  All rights reserved.

   384                                       PIC S9(002)V9(008) PACKED-DECIMAL.
   385             03  cRP|كN    PIC  X(001).
   386             03  cRP|󔭍stO
   387                                       PIC  X(001).
   388             03  cRP|ڍstO    PIC  X(001).
   389             03  cRP|ă[X\敪
   390                                       PIC  X(002).
   391             03  cRP|₢킹SXR[h
   392                                       PIC  X(004).
   393             03  cRP|₢킹SҖ
   394                                       PIC  X(020).
   395             03  cRP|ă[Xx\
   396                                       PIC  X(008).
   397             03  cRP|ʒm񓚊
   398                                       PIC  X(008).
   399             03  cRP|\敪      PIC  X(001).
   400             03  cRP|e\
   401                                       PIC S9(002) PACKED-DECIMAL.
   402             03  cRP|e\σtO
   403                                       PIC  X(001).
   404             03  cRP|_񌏖o^敪
   405                                       PIC  X(001).
   406             03  cRP|ԍό      PIC  X(080).
   407             03  cRP|۔F敪  PIC  X(001).
   408             03  cRP|񗝗R      PIC  X(002).
   409             03  cRP|_R[h
   410                                       PIC  X(005).
t@C: Z:\COB97\COPYLIB_DB\D31KYK.CBLN[Y
    91  000910     EXEC  SQL  INCLUDE  D32SAK.CBL            END-EXEC.          
    92  000920*                                                                 
    93  000930*--< ϊe[u >                                               
t@C: Z:\COB97\COPYLIB_DB\D32SAK.CBLI[v
     1        *****************************************************************
     2        *    (D32SAK_TBL)
     3        *****************************************************************
     4         01  .
     5             03  cRQ|_ԍ      PIC  X(010).
     6             03  cRQ|ă[X  PIC S9(002) PACKED-DECIMAL.
     7             03  cRQ|_      PIC  X(003).
     8             03  cRQ|_񌏖      PIC  X(040).
     9             03  cRQ|      PIC  X(060).
    10             03  cRQ|ϑ        PIC  X(001).
    11             03  cRQ|z  PIC S9(013) PACKED-DECIMAL.
    12             03  cRQ|ŋ敪
    13                                       PIC  X(002).
    14             03  cRQ|Ŋz  PIC S9(013) PACKED-DECIMAL.
    15             03  cRQ|_񑍊z  PIC S9(013) PACKED-DECIMAL.
    16             03  cRQ|őz
    17                                       PIC S9(013) PACKED-DECIMAL.
    18             03  cRQ|ŐVz  PIC S9(013) PACKED-DECIMAL.
    19             03  cRQ|ŐVŋ敪
    20                                       PIC  X(002).
    21             03  cRQ|ŐVŊz  PIC S9(013) PACKED-DECIMAL.
    22             03  cRQ|ŐV_񑍊z  PIC S9(013) PACKED-DECIMAL.
    23             03  cRQ|ŐVőz
    24                                       PIC S9(013) PACKED-DECIMAL.
    25             03  cRQ|ێ疳  PIC S9(003) PACKED-DECIMAL.
    26             03  cRQ|ԃtO    PIC  X(001).
    27             03  cRQ|tO    PIC  X(001).
    28             03  cRQ|N    PIC  X(008).
    29             03  cRQ|敪      PIC  X(001).
    30             03  cRQ|񗝗R      PIC  X(002).
Pro*COBOL: Release 9.2.0.1.0 - Production on  Apr 8 16:52:26 2005

Copyright (c) 1982, 2002, Oracle Corporation.  All rights reserved.

    31             03  cRQ|      PIC S9(002) PACKED-DECIMAL.
    32             03  cRQ|ŐV
    33                                       PIC  X(008).
    34             03  cRQ|z        PIC S9(013) PACKED-DECIMAL.
    35             03  cRQ|ŉz  PIC S9(013) PACKED-DECIMAL.
    36             03  cRQ|ŐV    PIC  X(008).
    37             03  cRQ|Ǘx
    38                                       PIC  X(001).
    39             03  cRQ|z  PIC S9(013) PACKED-DECIMAL.
    40             03  cRQ|vz  PIC S9(013) PACKED-DECIMAL.
    41             03  cRQ|擾z      PIC S9(013) PACKED-DECIMAL.
    42             03  cRQ|kytO
    43                                       PIC  X(001).
    44             03  cRQ|񏈗N  PIC  X(006).
    45             03  cRQ|Gg
    46                                       PIC  X(008).
    47             03  cRQ|tO    PIC  X(001).
    48             03  cRQ|N    PIC  X(008).
    49             03  cRQ|\tO
    50                                       PIC  X(001).
    51             03  cRQ|\    PIC  X(008).
    52             03  cRQ|ύXtO
    53                                       PIC  X(001).
    54             03  cRQ|ύX
    55                                       PIC S9(002) PACKED-DECIMAL.
    56             03  cRQ|ύX
    57                                       PIC  X(008).
    58             03  cRQ|O敪      PIC  X(001).
    59             03  cRQ|ă[X
    60                                       PIC S9(013) PACKED-DECIMAL.
    61             03  cRQ|ă[X敪
    62                                       PIC  X(001).
    63             03  cRQ|ێLtO
    64                                       PIC  X(001).
    65             03  cRQ|ă[X쐬tO
    66                                       PIC  X(001).
    67             03  cRQ|ă[X쐬N
    68                                       PIC  X(008).
    69             03  cRQ|XVN    PIC  X(008).
    70             03  cRQ|XV      PIC  X(008).
    71             03  cRQ|XV        PIC  X(008).
    72             03  cRQ|擾z    PIC S9(013) PACKED-DECIMAL.
    73             03  cRQ|擾z    PIC S9(013) PACKED-DECIMAL.
    74             03  cRQ|O      PIC S9(002) PACKED-DECIMAL.
    75             03  cRQ|ă[X
    76                                       PIC S9(013) PACKED-DECIMAL.
    77             03  cRQ|ă[Xŋ敪
    78                                       PIC  X(002).
    79             03  cRQ|      PIC S9(003) PACKED-DECIMAL.
    80             03  cRQ|    PIC S9(003) PACKED-DECIMAL.
    81             03  cRQ|Z_
    82                                       PIC  X(003).
    83             03  cRQ|ă[X敪
    84                                       PIC  X(001).
    85             03  cRQ|ă[X萔
    86                                       PIC S9(013) PACKED-DECIMAL.
    87             03  cRQ|UXgbv\N
    88                                       PIC  X(008).
    89             03  cRQ|UXgbv\
    90                                       PIC  X(004).
    91             03  cRQ|UXgbv\
    92                                       PIC  X(008).
Pro*COBOL: Release 9.2.0.1.0 - Production on  Apr 8 16:52:26 2005

Copyright (c) 1982, 2002, Oracle Corporation.  All rights reserved.

    93             03  cRQ|UXgbvJnN
    94                                       PIC  X(006).
    95             03  cRQ|UXgbvIN
    96                                       PIC  X(006).
    97             03  cRQ|UXgbvR
    98                                       PIC  X(002).
    99             03  cRQ|UXgbvGg
   100                                       PIC  X(008).
   101             03  cRQ|Uʐ\N
   102                                       PIC  X(008).
   103             03  cRQ|Uʐ\
   104                                       PIC  X(004).
   105             03  cRQ|Uʐ\
   106                                       PIC  X(008).
   107             03  cRQ|UʐJnN
   108                                       PIC  X(006).
   109             03  cRQ|UʐIN
   110                                       PIC  X(006).
   111             03  cRQ|Uʐ\z
   112                                       PIC S9(013) PACKED-DECIMAL.
   113             03  cRQ|UʃGg
   114                                       PIC  X(008).
   115             03  cRQ|xă[X
   116                                       PIC S9(013) PACKED-DECIMAL.
   117             03  cRQ|ϑێ敪  PIC  X(001).
   118             03  cRQ|ϑێ瑊z
   119                                       PIC S9(013) PACKED-DECIMAL.
   120             03  cRQ|͒S҃R[h
   121                                       PIC  X(008).
   122             03  cRQ|̑_ދ敪
   123                                       PIC  X(001).
   124             03  cRQ|R[h  PIC  X(009).
   125             03  cRQ|R[h  PIC  X(005).
   126             03  cRQ|evz      PIC S9(013) PACKED-DECIMAL.
   127             03  cRQ|evz|\  PIC S9(013) PACKED-DECIMAL.
   128             03  cRQ|`    PIC  X(008).
   129             03  cRQ|`      PIC S9(003) PACKED-DECIMAL.
   130             03  cRQ|Еz
   131                                       PIC S9(013) PACKED-DECIMAL.
   132             03  cRQ|Еz
   133                                       PIC S9(013) PACKED-DECIMAL.
   134             03  cRQ|Е_񑍊z
   135                                       PIC S9(013) PACKED-DECIMAL.
   136             03  cRQ|Еőz
   137                                       PIC S9(013) PACKED-DECIMAL.
   138             03  cRQ|Ѝwz    PIC S9(013) PACKED-DECIMAL.
   139             03  cRQ|cݒz    PIC S9(013) PACKED-DECIMAL.
   140             03  cRQ|Ўcݒz
   141                                       PIC S9(013) PACKED-DECIMAL.
   142             03  cRQ|Љz    PIC S9(013) PACKED-DECIMAL.
   143             03  cRQ|Љz
   144                                       PIC S9(013) PACKED-DECIMAL.
   145             03  cRQ|Њz
   146                                       PIC S9(013) PACKED-DECIMAL.
   147             03  cRQ|Њvz
   148                                       PIC S9(013) PACKED-DECIMAL.
   149             03  cRQ|ă[X萔z
   150                                       PIC S9(013) PACKED-DECIMAL.
   151             03  cRQ|ă[X萔
   152                                       PIC  X(008).
   153             03  cRQ|p萔  PIC S9(013) PACKED-DECIMAL.
   154             03  cRQ|ă[XЎcݒz
Pro*COBOL: Release 9.2.0.1.0 - Production on  Apr 8 16:52:26 2005

Copyright (c) 1982, 2002, Oracle Corporation.  All rights reserved.

   155                                       PIC S9(013) PACKED-DECIMAL.
   156             03  cRQ|ă[XЎcݒz
   157                                       PIC S9(013) PACKED-DECIMAL.
   158             03  cRQ|z
   159                                       PIC S9(013) PACKED-DECIMAL.
   160             03  cRQ|vz
   161                                       PIC S9(013) PACKED-DECIMAL.
   162             03  cRQ|z
   163                                       PIC S9(013) PACKED-DECIMAL.
   164             03  cRQ|vz
   165                                       PIC S9(013) PACKED-DECIMAL.
   166             03  cRQ|pz
   167                                       PIC S9(013) PACKED-DECIMAL.
   168             03  cRQ|菈R[h
   169                                       PIC  X(002).
   170             03  cRQ|Œ|
   171                                       PIC S9(013) PACKED-DECIMAL.
   172             03  cRQ|菈R[h
   173                                       PIC  X(002).
   174             03  cRQ|敪  PIC  X(001).
   175             03  cRQ|zz
   176                                       PIC S9(013) PACKED-DECIMAL.
   177             03  cRQ|Ŋzz
   178                                       PIC S9(013) PACKED-DECIMAL.
   179             03  cRQ|ŐVzz
   180                                       PIC S9(013) PACKED-DECIMAL.
   181             03  cRQ|ŐVŊzz
   182                                       PIC S9(013) PACKED-DECIMAL.
   183             03  cRQ|ŐV_񑍊zz
   184                                       PIC S9(013) PACKED-DECIMAL.
   185             03  cRQ|ŐVőzz
   186                                       PIC S9(013) PACKED-DECIMAL.
   187             03  cRQ|擾zz
   188                                       PIC S9(013) PACKED-DECIMAL.
   189             03  cRQ|擾zz
   190                                       PIC S9(013) PACKED-DECIMAL.
   191             03  cRQ|ă[Xz
   192                                       PIC S9(013) PACKED-DECIMAL.
   193             03  cRQ|ă[Xőz
   194                                       PIC S9(013) PACKED-DECIMAL.
   195             03  cRQ|cTCg
   196                                       PIC S9(002)V9(002) PACKED-DECIMAL.
   197             03  cRQ|XPO_񑍊z
   198                                       PIC S9(013) PACKED-DECIMAL.
   199             03  cRQ|Œ敪
   200                                       PIC  X(001).
   201             03  cRQ|o^N    PIC  X(008).
   202             03  cRQ|o^      PIC  X(008).
   203             03  cRQ|o^S    PIC  X(008).
   204             03  cRQ|UzύXR
   205                                       PIC  X(002).
   206             03  cRQ|Еă[X
   207                                       PIC S9(013) PACKED-DECIMAL.
   208             03  cRQ|Еă[X
   209                                       PIC S9(013) PACKED-DECIMAL.
   210             03  cRQ|ݒuꏊ敪  PIC S9(001) PACKED-DECIMAL.
   211             03  cRQ|_񑍊zz
   212                                       PIC S9(013) PACKED-DECIMAL.
   213             03  cRQ|őzz
   214                                       PIC S9(013) PACKED-DECIMAL.
   215             03  cRQ|Ѝwz    PIC S9(013) PACKED-DECIMAL.
   216             03  cRQ|Ўcݒz
Pro*COBOL: Release 9.2.0.1.0 - Production on  Apr 8 16:52:26 2005

Copyright (c) 1982, 2002, Oracle Corporation.  All rights reserved.

   217                                       PIC S9(013) PACKED-DECIMAL.
   218             03  cRQ|Ќ{z  PIC S9(013) PACKED-DECIMAL.
   219             03  cRQ|Д㗘z
   220                                       PIC S9(013) PACKED-DECIMAL.
   221             03  cRQ|Зz  PIC S9(013) PACKED-DECIMAL.
   222             03  cRQ|Џpz
   223                                       PIC S9(013) PACKED-DECIMAL.
   224             03  cRQ|ЌŒ莑Yőz
   225                                       PIC S9(013) PACKED-DECIMAL.
   226             03  cRQ|Гیz
   227                                       PIC S9(013) PACKED-DECIMAL.
   228             03  cRQ|Јϑێ痿z
   229                                       PIC S9(013) PACKED-DECIMAL.
   230             03  cRQ|Ђ̑pz
   231                                       PIC S9(013) PACKED-DECIMAL.
   232             03  cRQ|ЕxpKpv
   233                                       PIC S9(013) PACKED-DECIMAL.
   234             03  cRQ|Еxpʍv
   235                                       PIC S9(013) PACKED-DECIMAL.
   236             03  cRQ|{z      PIC S9(013) PACKED-DECIMAL.
   237             03  cRQ|z      PIC S9(013) PACKED-DECIMAL.
   238             03  cRQ|pz    PIC S9(013) PACKED-DECIMAL.
t@C: Z:\COB97\COPYLIB_DB\D32SAK.CBLN[Y
    94  000940     EXEC  SQL  INCLUDE  IKOTBL001.CBL         END-EXEC.          
    95  000950*                                                                 
    96  000960*--< _ޓϊe[u >                                     
t@C: Z:\COB97\COPYLIB_DB\IKOTBL001.CBLI[v
     1  000010************************************************
     2  000020* ϊe[u(IKOTBL001)
     3  000030************************************************
     4  000040 01  hjnOOP|R[h PIC  X(008).
     5  000050 01  hjnOOP|ړIbc PIC  X(001).
     6  000060 01  hjnOOP|VR[h PIC  X(007).
     7  000070 01  hjnOOP|} PIC  X(003).
     8  000080 01  hjnOOP|^MR[h PIC  X(007).
     9  000090 01  hjnOOP|񂹃R[h PIC  X(008).
    10  000100 01  hjnOOP|[UR[h PIC  X(008).
    11  000110 01  hjnOOP|ʂbc PIC  X(001).
t@C: Z:\COB97\COPYLIB_DB\IKOTBL001.CBLN[Y
    97  000970     EXEC  SQL  INCLUDE  IKOTBL002.CBL         END-EXEC.          
    98  000980*                                                                 
t@C: Z:\COB97\COPYLIB_DB\IKOTBL002.CBLI[v
     1  000010************************************************
     2  000020* _ޓϊe[u(IKOTBL002)
     3  000030************************************************
     4  000040 01  hjnOOQ|_mn PIC  X(009).
     5  000050 01  hjnOOQ|ă[XR[h PIC S9(001) COMP-3.
     6  000060 01  hjnOOQ|菈R[h PIC S9(002) COMP-3.
     7  000070 01  hjnOOQ|菈R[h PIC S9(002) COMP-3.
     8  000080 01  hjnOOQ|ă[X PIC S9(002) COMP-3.
     9  000090 01  hjnOOQ|菈R[h PIC S9(002) COMP-3.
    10  000100 01  hjnOOQ|菈R[h PIC S9(002) COMP-3.
    11  000110 01  hjnOOQ|_ PIC  X(003).
    12  000120 01  hjnOOQ|_敪 PIC  X(001).
    13  000130 01  hjnOOQ|菇 PIC  X(001).
t@C: Z:\COB97\COPYLIB_DB\IKOTBL002.CBLN[Y
    99  000990     EXEC  SQL  END  DECLARE          SECTION  END-EXEC.          
   100  001000*                                                                 
   101  001010*----------------------------------------------------------------*
   102  001020*    vnqjGA                                              *
   103  001030*----------------------------------------------------------------*
   104  001040 01  vnqj|GA.                                            
Pro*COBOL: Release 9.2.0.1.0 - Production on  Apr 8 16:52:26 2005

Copyright (c) 1982, 2002, Oracle Corporation.  All rights reserved.

   105  001050*--< G[p >                                               
   106  001060     03  v|G[R[h             PIC S9(04).                 
   107  001070*                                                                 
   108  001080*--< GA >                                                 
   109  001090     03  GA.                                              
   110  001100         05  v|͂P|         PIC  9(09).                 
   111  001110         05  v|͂Q|         PIC  9(09).                 
   112  001120         05  v|͂R|         PIC  9(09).                 
   113  001130         05  v|͂S|         PIC  9(09).                 
   114  001140         05  v|ó|           PIC  9(09).                 
   115  001150*                                                                 
   116  001160*--< tOAA >                                               
   117  001170     03  tOAA.                                            
   118  001180         05  v|I|tO         PIC  X(01).                 
   119  001190         05  v|ُI|tO     PIC  X(01).                 
   120  001200*                                                                 
   121  001210*--< t@C >                                               
   122  001220     03  v|t@C             PIC  X(02).                 
   123  001230*                                                                 
   124  001240*--< ϐ` >                                                   
   125  001250     03  v|ϐ`.                                            
   126  001260         05  v|Mpیtۋ敪     PIC  X(01).                 
   127  001270         05  v|vZ             PIC  X(01).                 
   128  001280         05  v|ŗ             PIC  9V99.                  
   129  001290         05  v|                 PIC  X(01).                 
   130  001300*                                                                 
   131  001310*--< ʏ` >                                               
   132  001320 01  v|ʏ.                                                
   133  001330     03  v|VXet.                                        
   134  001340         05  v|I                 PIC  X(02) VALUE "20".      
   135  001350         05  v|N               PIC  X(06).                 
   136  001360     03  v|VXe             PIC  X(08).                 
   137  001370     03  v|S                   PIC  X(08) VALUE "IKOPG   ".
   138  001380*                                                                 
   139  001390*----------------------------------------------------------------*
   140  001400*    Tu[`                                              *
   141  001410*----------------------------------------------------------------*
   142  001420 01  CALL-AREA.                                                   
   143  001430*--< ʃOTu[` >                                       
   144  001440     03  CLOCO001                     PIC  X(08) VALUE "CLOCO001".
   145  001450     03  COBCO001                     PIC  X(08) VALUE "COBCO001".
   146  001460*                                                                 
   147  001470*----------------------------------------------------------------*
   148  001480*    bnoẍ                                                *
   149  001490*----------------------------------------------------------------*
   150  001500*--< ʃOpp[^ >                                       
   151  001510 01  IF-CHOCO001.                                                 
   152  001520     COPY  CHOCO001  REPLACING   ==()==  BY  ==P|==.          
   153  001530*                                                                 
   154  001540*----------------------------------------------------------------*
   155  001550*    hmht@CǍTu[`pp^̈                *
   156  001560*----------------------------------------------------------------*
   157  001570 01  PARA-AREA.                                                   
   158  001580     COPY CPBCO001.                                               
   159  001590*                                                                 
   160  001600*----------------------------------------------------------------*
   161  001610*    R[ḧ                                          *
   162  001620*----------------------------------------------------------------*
   163  001630 01  R[h.                                              
   164  001640     COPY  CISUF660   REPLACING  ==()==  BY  ==|==.        
   165  001650*                                                                 
   166  001660*----------------------------------------------------------------*
Pro*COBOL: Release 9.2.0.1.0 - Production on  Apr 8 16:52:26 2005

Copyright (c) 1982, 2002, Oracle Corporation.  All rights reserved.

   167  001670*    萔pf[^`GA                                      *
   168  001680*----------------------------------------------------------------*
   169  001690 CONSTANT                             SECTION.                    
   170  001700 01  萔̈.                                                    
   171  001710     03  萔|vOhc         PIC  X(08) VALUE "COBIS660".
   172  001720     03  萔|vO           PIC  X(80)                  
   173  001730                                    VALUE  "Ǘ^M_ڍs".
   174  001740     03  萔|rpknj             PIC S9(04)  VALUE  ZERO.    
   175  001750     03  萔|rpkdmc           PIC S9(04)  VALUE  0100.    
   176  001760     03  萔|               PIC S9(04)  VALUE  ZERO.    
   177  001770     03  萔|ُ               PIC S9(04)  VALUE  0009.    
   178  001780*                                                                 
   179  001790******************************************************************
   180  001800*    oqnbdctqd            chuhrhnm              *
   181  001810******************************************************************
   182  001820 PROCEDURE                            DIVISION.                   
   183  001830*                                                                 
   184  001840     PERFORM  .                                           
   185  001850*                                                                 
   186  001860     PERFORM  又  UNTIL  v|I|tO  =  "Y".            
   187  001870*                                                                 
   188  001880     PERFORM  I.                                           
   189  001890*                                                                 
   190  001900     STOP     RUN.                                                
   191  001910*                                                                 
   192  001920******************************************************************
   193  001930*                                                        *
   194  001940******************************************************************
   195  001950                              SECTION.                    
   196  001960 |rs`qs.                                            
   197  001970*                                                                 
   198  001980*--< JnbZ[Wo >                                         
   199  001990     PERFORM   JnbZ[Wo.                                
   200  002000*                                                                 
   201  002010*--< Ɨ̈̏l >                                       
   202  002020     PERFORM   Ɨ̈̏l.                              
   203  002030*                                                                 
   204  002040*--< nq`bkdڑ >                                           
   205  002050     PERFORM   nq`bkdڑ.                                  
   206  002060*                                                                 
   207  002070*--< e[uJ[\` >                                   
   208  002080     PERFORM  e[uJ[\`.                           
   209  002090*                                                                 
   210  002100*--< t@CI[v >                                           
   211  002110     PERFORM  t@CI[v.                                   
   212  002120*                                                                 
   213  002130*--< VXe擾 >                                         
   214  002140     PERFORM  VXe擾.                                 
   215  002150*                                                                 
   216  002160*--< e[uǍiPځj>                                  
   217  002170     PERFORM  e[uǍ.                                   
   218  002180*                                                                 
   219  002190 |dwhs.                                              
   220  002200     EXIT.                                                        
   221  002210*                                                                 
   222  002220******************************************************************
   223  002230*    JnbZ[Wo                                          *
   224  002240******************************************************************
   225  002250 JnbZ[Wo                   SECTION.                    
   226  002260 JnbZ[Wó|rs`qs.                                  
   227  002270*                                                                 
   228  002280     INITIALIZE                       IF-CHOCO001.                
Pro*COBOL: Release 9.2.0.1.0 - Production on  Apr 8 16:52:26 2005

Copyright (c) 1982, 2002, Oracle Corporation.  All rights reserved.

   229  002290     MOVE  "3"                        TO  P|Cxg.     
   230  002300     MOVE  萔|vOhc       TO  P|\[Xhc.       
   231  002310     MOVE  "0"                        TO  P|AR[h.       
   232  002320     MOVE  "START"                    TO  P|.         
   233  002330     MOVE  萔|vO         TO  P|̑bZ[W. 
   234  002340     CALL  CLOCO001                USING  IF-CHOCO001.            
   235  002350*                                                                 
   236  002360 JnbZ[Wó|dwhs.                                    
   237  002370     EXIT.                                                        
   238  002380*                                                                 
   239  002390******************************************************************
   240  002400*    Ɨ̈̏l                                        *
   241  002410******************************************************************
   242  002420 Ɨ̈̏l                 SECTION.                    
   243  002430 Ɨ̈̏l|rs`qs.                                
   244  002440*                                                                 
   245  002450     MOVE  SPACE                      TO  vnqj|GA.       
   246  002460     INITIALIZE                           vnqj|GA.       
   247  002470*                                                                 
   248  002480     MOVE  SPACE                      TO  R[h.         
   249  002490     INITIALIZE                           R[h.         
   250  002500*                                                                 
   251  002510 Ɨ̈̏l|dwhs.                                  
   252  002520     EXIT.                                                        
   253  002530*                                                                 
   254  002540******************************************************************
   255  002550*    nq`bkdڑ                                            *
   256  002560******************************************************************
   257  002570 nq`bkdڑ                     SECTION.                    
   258  002580 nq`bkdڑ|rs`qs.                                    
   259  002590*                                                                 
   260  002600*--< caڑp擾 >                                   
   261  002610     CALL  COBCO001                USING  PARA-AREA.              
   262  002620*                                                                 
   263  002630     MOVE  PARA-DBSTRING              TO  DB-STRING.              
   264  002640     MOVE  PARA-USERNAME              TO  USERNAME.               
   265  002650     MOVE  PARA-PASSWORD              TO  PASSWD.                 
   266  002660*                                                                 
   267  002670*--< Jnڑ >                                                   
   268  002680     IF    DB-STRING  =  SPACE                                    
   269  002690        EXEC SQL                                                  
   270  002700           CONNECT  :USERNAME IDENTIFIED BY :PASSWD               
   271  002710        END-EXEC                                                  
   272  002720     ELSE                                                         
   273  002730        EXEC SQL                                                  
   274  002740           CONNECT  :USERNAME IDENTIFIED BY :PASSWD               
   275  002750             USING  :DB-STRING                                    
   276  002760        END-EXEC                                                  
   277  002770     END-IF.                                                      
   278  002780*                                                                 
   279  002790*--< ڑmF >                                                   
   280  002800     EVALUATE  SQLCODE                                            
   281  002810*--<    ڑ >                                                
   282  002820        WHEN  萔|rpknj                                    
   283  002830           CONTINUE                                               
   284  002840*--<    ڑG[ >                                              
   285  002850        WHEN  OTHER                                               
   286  002860           MOVE  -10                  TO  v|G[R[h        
   287  002870           PERFORM  G[菈                                
   288  002880     END-EVALUATE.                                                
   289  002890*                                                                 
   290  002900 nq`bkdڑ|dwhs.                                      
Pro*COBOL: Release 9.2.0.1.0 - Production on  Apr 8 16:52:26 2005

Copyright (c) 1982, 2002, Oracle Corporation.  All rights reserved.

   291  002910     EXIT.                                                        
   292  002920*                                                                 
   293  002930******************************************************************
   294  002940*    e[uJ[\`                                    *
   295  002950******************************************************************
   296  002960 e[uJ[\`             SECTION.                    
   297  002970 e[uJ[\`|rs`qs.                            
   298  002980*                                                                 
   299  002990*--< J[\` >                                               
   300  003000     EXEC SQL                                                     
   301  003010        DECLARE CUR1  CURSOR FOR                                  
   302  003020           SELECT                                                 
   303  003030                   NVL(YOSHINKIHON.Ǘ^MR[h,'00000000')   
   304  003040                  ,YOSHINMEISAI._mn                          
   305  003050                  ,YOSHINMEISAI.R[h                        
   306  003060                  ,YOSHINMEISAI.ƏR[h                      
   307  003070                  ,YOSHINMEISAI.̓                            
   308  003080                  ,YOSHINMEISAI._                            
   309  003090                  ,YOSHINMEISAI.                            
   310  003100                  ,YOSHINMEISAI.                            
   311  003110                  ,YOSHINMEISAI.c                          
   312  003120                  ,YOSHINMEISAI.ݕtʌ                        
   313  003130                  ,YOSHINMEISAI.ғY                        
   314  003140                  ,YOSHINMEISAI.i                            
   315  003150                  ,YOSHINMEISAI.Mpیtۋ敪                  
   316  003160                  ,YOSHINMEISAI.Mpی                      
   317  003170                  ,YOSHINMEISAI._z                          
   318  003180                  ,YOSHINMEISAI.                            
   319  003190                  ,YOSHINMEISAI.Jn                          
   320  003200                  ,YOSHINMEISAI.׎x                      
   321  003210                  ,YOSHINMEISAI.vZ                          
   322  003220                  ,YOSHINMEISAI.TCN                      
   323  003230                  ,YOSHINMEISAI.؊Jn                        
   324  003240                  ,YOSHINMEISAI.tOP                    
   325  003250                  ,YOSHINMEISAI.tOQ                    
   326  003260                  ,YOSHINMEISAI.cz                            
   327  003270                  ,YOSHINMEISAI.k                          
   328  003280                  ,YOSHINMEISAI.Nx敪                      
   329  003290                  ,YOSHINMEISAI.̍c                        
   330  003300                  ,YOSHINMEISAI.̌{c                        
   331  003310                  ,YOSHINMEISAI.{c                          
   332  003320                  ,YOSHINMEISAI.{                          
   333  003330                  ,YOSHINMEISAI.                          
   334  003340                  ,YOSHINMEISAI.                          
   335  003350                  ,YOSHINMEISAI.a                        
   336  003360                  ,YOSHINMEISAI.pz                          
   337  003370                  ,YOSHINMEISAI.Œ藘                          
   338  003380                  ,YOSHINMEISAI.ϓ敪                      
   339  003390                  ,YOSHINMEISAI.Xvbh                        
   340  003400                  ,YOSHINMEISAI.A敪                      
   341  003410                  ,NVL(YOSHINKIHON.敪,' ')                  
   342  003420             FROM  YOSHINMEISAI                                   
   343  003430                  ,YOSHINKIHON                                    
   344  003440            WHERE  YOSHINMEISAI.Ǘ^MR[h  =               
   345  003450                                YOSHINKIHON.Ǘ^MR[h (+)  
   346  003460              AND  YOSHINMEISAI.Ǘ^M敪  =                   
   347  003470                                YOSHINKIHON.Ǘ^M敪 (+)      
   348  003480              AND  YOSHINMEISAI.^M敪  =                   
   349  003490                                YOSHINKIHON.^M敪 (+)      
   350  003500              AND  YOSHINMEISAI.̓  =                         
   351  003510                                YOSHINKIHON.̓ (+)            
   352  003520     END-EXEC.                                                    
Pro*COBOL: Release 9.2.0.1.0 - Production on  Apr 8 16:52:26 2005

Copyright (c) 1982, 2002, Oracle Corporation.  All rights reserved.

   353  003530*                                                                 
   354  003540*--< J[\nodm >                                       
   355  003550     EXEC  SQL                                                    
   356  003560        OPEN  CUR1                                                
   357  003570     END-EXEC.                                                    
   358  003580*                                                                 
   359  003590*--< J[\nodmmF >                                       
   360  003600     EVALUATE  SQLCODE                                            
   361  003610*--<    J[\nodm >                                    
   362  003620        WHEN  萔|rpknj                                    
   363  003630           CONTINUE                                               
   364  003640*--<    J[\nodmG[ >                                  
   365  003650        WHEN  OTHER                                               
   366  003660           MOVE  -20                  TO  v|G[R[h        
   367  003670           PERFORM  G[菈                                
   368  003680     END-EVALUATE.                                                
   369  003690*                                                                 
   370  003700 e[uJ[\`|dwhs.                              
   371  003710     EXIT.                                                        
   372  003720*                                                                 
   373  003730******************************************************************
   374  003740*    t@CI[v                                            *
   375  003750******************************************************************
   376  003760 t@CI[v                     SECTION.                    
   377  003770 t@CI[v|rs`qs.                                    
   378  003780*                                                                 
   379  003790*--< t@CI[v nodm >                                  
   380  003800     OPEN  OUTPUT  o̓t@C.                                  
   381  003810*                                                                 
   382  003820*--< t@CI[vԔ >                                   
   383  003830     EVALUATE  v|t@C                                   
   384  003840*--<    t@CI[v >                                    
   385  003850        WHEN  ZERO                                                
   386  003860           CONTINUE                                               
   387  003870*--<    t@CI[vG[ >                                  
   388  003880        WHEN  OTHER                                               
   389  003890           MOVE  -30                  TO  v|G[R[h        
   390  003900           PERFORM  G[菈                                
   391  003910     END-EVALUATE.                                                
   392  003920*                                                                 
   393  003930 t@CI[v|dwhs.                                      
   394  003940     EXIT.                                                        
   395  003950*                                                                 
   396  003960******************************************************************
   397  003970*    VXe擾                                          *
   398  003980******************************************************************
   399  003990 VXe擾                   SECTION.                    
   400  004000 VXe擾|rs`qs.                                  
   401  004010*                                                                 
   402  004020*--< VXeN擾 >                                       
   403  004030     ACCEPT  v|N               FROM  DATE.                 
   404  004040*                                                                 
   405  004050*--< VXe擾 >                                         
   406  004060     ACCEPT  v|VXe         FROM  TIME.                 
   407  004070*                                                                 
   408  004080 VXe擾|dwhs.                                    
   409  004090     EXIT.                                                        
   410  004100*                                                                 
   411  004110******************************************************************
   412  004120*    e[uJ[\Ǎ                                    *
   413  004130******************************************************************
   414  004140 e[uǍ                     SECTION.                    
Pro*COBOL: Release 9.2.0.1.0 - Production on  Apr 8 16:52:26 2005

Copyright (c) 1982, 2002, Oracle Corporation.  All rights reserved.

   415  004150 e[uǍ|rs`qs.                                    
   416  004160*                                                                 
   417  004170*--< e[uJ[\Ǎ >                                   
   418  004180     EXEC SQL                                                     
   419  004190         FETCH  CUR1                                              
   420  004200          INTO   :xnrghmjhgnm|Ǘ^MR[h        
   421  004210                ,:xnrghmldhr`h|_mn              
   422  004220                ,:xnrghmldhr`h|R[h            
   423  004230                ,:xnrghmldhr`h|ƏR[h          
   424  004240                ,:xnrghmldhr`h|̓                
   425  004250                ,:xnrghmldhr`h|_                
   426  004260                ,:xnrghmldhr`h|                
   427  004270                ,:xnrghmldhr`h|                
   428  004280                ,:xnrghmldhr`h|c              
   429  004290                ,:xnrghmldhr`h|ݕtʌ            
   430  004300                ,:xnrghmldhr`h|ғY            
   431  004310                ,:xnrghmldhr`h|i                
   432  004320                ,:xnrghmldhr`h|Mpیtۋ敪      
   433  004330                ,:xnrghmldhr`h|Mpی          
   434  004340                ,:xnrghmldhr`h|_z              
   435  004350                ,:xnrghmldhr`h|                
   436  004360                ,:xnrghmldhr`h|Jn              
   437  004370                ,:xnrghmldhr`h|׎x          
   438  004380                ,:xnrghmldhr`h|vZ              
   439  004390                ,:xnrghmldhr`h|TCN          
   440  004400                ,:xnrghmldhr`h|؊Jn            
   441  004410                ,:xnrghmldhr`h|tOP        
   442  004420                ,:xnrghmldhr`h|tOQ        
   443  004430                ,:xnrghmldhr`h|cz                
   444  004440                ,:xnrghmldhr`h|k              
   445  004450                ,:xnrghmldhr`h|Nx敪          
   446  004460                ,:xnrghmldhr`h|̍c            
   447  004470                ,:xnrghmldhr`h|̌{c            
   448  004480                ,:xnrghmldhr`h|{c              
   449  004490                ,:xnrghmldhr`h|{              
   450  004500                ,:xnrghmldhr`h|              
   451  004510                ,:xnrghmldhr`h|              
   452  004520                ,:xnrghmldhr`h|a            
   453  004530                ,:xnrghmldhr`h|pz              
   454  004540                ,:xnrghmldhr`h|Œ藘              
   455  004550                ,:xnrghmldhr`h|ϓ敪          
   456  004560                ,:xnrghmldhr`h|Xvbh            
   457  004570                ,:xnrghmldhr`h|A敪          
   458  004580                ,:xnrghmjhgnm|敪                
   459  004590     END-EXEC.                                                    
   460  004600*                                                                 
   461  004610*--< e[uǍmF >                                     
   462  004620     EVALUATE   SQLCODE                                           
   463  004630*--<    Ǎ >                                                
   464  004640        WHEN  萔|rpknj                                    
   465  004650           COMPUTE  v|͂P|  =  v|͂P|  +  1   
   466  004660           COMPUTE  v|͂Q|  =  v|͂Q|  +  1   
   467  004670*--<    ǍI >                                                
   468  004680        WHEN  萔|rpkdmc                                  
   469  004690           MOVE  "Y"                  TO  v|I|tO        
   470  004700*--<    ǍG[ >                                              
   471  004710        WHEN  OTHER                                               
   472  004720           MOVE  -40                  TO  v|G[R[h        
   473  004730           PERFORM  G[菈                                
   474  004740     END-EVALUATE.                                                
   475  004750*                                                                 
   476  004760 e[uǍ|dwhs.                                      
Pro*COBOL: Release 9.2.0.1.0 - Production on  Apr 8 16:52:26 2005

Copyright (c) 1982, 2002, Oracle Corporation.  All rights reserved.

   477  004770     EXIT.                                                        
   478  004780*                                                                 
   479  004790******************************************************************
   480  004800*    又                                                      *
   481  004810******************************************************************
   482  004820 又                               SECTION.                    
   483  004830 又|rs`qs.                                              
   484  004840*                                                                 
   485  004850*--< Ǘ^MR[hҏW >                                       
   486  004860     PERFORM  Ǘ^MR[hҏW.                               
   487  004870*                                                                 
   488  004880*--< ҏWAo͔ >                                             
   489  004890     IF  v|  =  "Y"                                         
   490  004900*                                                                 
   491  004910*--<    ҏW >                                                
   492  004920        PERFORM  ҏW                                         
   493  004930*                                                                 
   494  004940*--<    o͏ >                                                
   495  004950        PERFORM  o͏                                         
   496  004960     END-IF.                                                      
   497  004970*                                                                 
   498  004980*--< e[u͓Ǎ(Qڈȍ~) >                       
   499  004990     PERFORM  e[uǍ.                                   
   500  005000*                                                                 
   501  005010 又|dwhs.                                                
   502  005020     EXIT.                                                        
   503  005030*                                                                 
   504  005040******************************************************************
   505  005050*    Ǘ^MR[hҏW                                        *
   506  005060******************************************************************
   507  005070 Ǘ^MR[hҏW                 SECTION.                    
   508  005080 Ǘ^MR[hҏW|rs`qs.                                
   509  005090*                                                                 
   510  005100*--< Ǘ^MR[hϊ >                                       
   511  005110     EVALUATE  xnrghmjhgnm|Ǘ^MR[h           
   512  005120        WHEN  "02683250"                                          
   513  005130           MOVE  "02683233"           TO  vr|Ǘ^MR[h  
   514  005140        WHEN  "T2677944"                                          
   515  005150           MOVE  "T2672500"           TO  vr|Ǘ^MR[h  
   516  005160        WHEN  "S1519455"                                          
   517  005170           MOVE  "S1519684"           TO  vr|Ǘ^MR[h  
   518  005180        WHEN  OTHER                                               
   519  005190           MOVE  xnrghmjhgnm|Ǘ^MR[h         
   520  005200                                      TO  vr|Ǘ^MR[h  
   521  005210*                                                                 
   522  005220     END-EVALUATE.                                                
   523  005230*                                                                 
   524  005240*--< VR[hҏW >                                         
   525  005250     EXEC  SQL                                                    
   526  005260        SELECT  VR[h                                    
   527  005270          INTO  :hjnOOP|VR[h                     
   528  005280          FROM  IKOTBL001                                         
   529  005290         WHERE  R[h          =  :vr|Ǘ^MR[h  
   530  005300           AND  ړIbc              =  '2'                      
   531  005310     END-EXEC.                                                    
   532  005320*                                                                 
   533  005330*--< VR[h擾mF >                                   
   534  005340     EVALUATE  SQLCODE                                            
   535  005350*--<    擾 >                                                
   536  005360        WHEN  萔|rpknj                                    
   537  005370           MOVE  hjnOOP|VR[h                     
   538  005380                                      TO  vr|VR[h    
Pro*COBOL: Release 9.2.0.1.0 - Production on  Apr 8 16:52:26 2005

Copyright (c) 1982, 2002, Oracle Corporation.  All rights reserved.

   539  005390           MOVE  "Y"                  TO  v|                
   540  005400*                                                                 
   541  005410*--<    擾G[ >                                              
   542  005420        WHEN  OTHER                                               
   543  005430           DISPLAY  "^MǗR[hϊG[  "            
   544  005440                    "Ǘ^MR[h/ړIbc :"                 
   545  005450                     vr|Ǘ^MR[h "/""2"                
   546  005460           MOVE  "N"                  TO  v|                
   547  005470     END-EVALUATE.                                                
   548  005480*                                                                 
   549  005490 Ǘ^MR[hҏW|dwhs.                                  
   550  005500     EXIT.                                                        
   551  005510*                                                                 
   552  005520******************************************************************
   553  005530*    ҏW                                                    *
   554  005540******************************************************************
   555  005550 ҏW                             SECTION.                    
   556  005560 ҏW|rs`qs.                                            
   557  005570*                                                                 
   558  005580*--< o̓R[h >                                         
   559  005590     MOVE  R[h             TO  ó|R[h.         
   560  005600*                                                                 
   561  005610*--< NO.01 >                                                      
   562  005620     MOVE  vr|VR[h       TO  ó|^MǗR[h. 
   563  005630*                                                                 
   564  005640*--< NO.02 >                                                      
   565  005650     MOVE  xnrghmldhr`h|_mn                     
   566  005660                                      TO  ó|_ԍ.         
   567  005670*                                                                 
   568  005680*--< NO.03 >                                                      
   569  005690     PERFORM  ă[X񐔕ҏW.                                   
   570  005700     MOVE  vr|ă[X         TO  ó|ă[X.     
   571  005710*                                                                 
   572  005720*--< NO.04 >                                                      
   573  005730     PERFORM  _ޕҏW.                                       
   574  005740     MOVE  vr|_             TO  ó|_.         
   575  005750*                                                                 
   576  005760*--< NO.05 >                                                      
   577  005770     MOVE  xnrghmldhr`h|R[h                   
   578  005780                                      TO  ó|菈R[h.   
   579  005790*                                                                 
   580  005800*--< NO.06 >                                                      
   581  005810     MOVE  xnrghmldhr`h|ƏR[h                 
   582  005820                                      TO  ó|ۃR[h.       
   583  005830*                                                                 
   584  005840*--< NO.07 >                                                      
   585  005850     PERFORM  _敪ҏW.                                     
   586  005860     MOVE  hjnOOQ|_敪   TO  ó|_敪.       
   587  005870*                                                                 
   588  005880*--< NO.08 >                                                      
   589  005890     PERFORM  _R[hҏW.                                   
   590  005900     MOVE  hjnOOP|}         TO  ó|_R[h.     
   591  005910*                                                                 
   592  005920*--< NO.09 >                                                      
   593  005930     PERFORM  _ee[uǍ                            
   594  005940     MOVE  cRP|_񌏖           TO  ó|_񌏖.         
   595  005950*                                                                 
   596  005960*--< NO.10 >                                                      
   597  005970     MOVE  xnrghmldhr`h|̓                       
   598  005980                                      TO  ó|N.       
   599  005990*                                                                 
   600  006000*--< NO.11 >                                                      
Pro*COBOL: Release 9.2.0.1.0 - Production on  Apr 8 16:52:26 2005

Copyright (c) 1982, 2002, Oracle Corporation.  All rights reserved.

   601  006010     MOVE  xnrghmldhr`h|_                       
   602  006020                                      TO  ó|_N.       
   603  006030*                                                                 
   604  006040*--< NO.12 >                                                      
   605  006050     MOVE  xnrghmldhr`h|                       
   606  006060                                      TO  ó|N.       
   607  006070*                                                                 
   608  006080*--< NO.13 >                                                      
   609  006090     MOVE  xnrghmldhr`h|                       
   610  006100                                      TO  ó|N.       
   611  006110*                                                                 
   612  006120*--< NO.14 >                                                      
   613  006130     MOVE  xnrghmldhr`h|c                     
   614  006140                                      TO  ó|ΊOc.     
   615  006150*                                                                 
   616  006160*--< NO.15 >                                                      
   617  006170     PERFORM  e[uǍ                                
   618  006180     COMPUTE  ó|ΊOc                            
   619  006190           =  xnrghmldhr`h|c  *  v|ŗ.
   620  006200*                                                                 
   621  006210*--< NO.16 >                                                      
   622  006220     MOVE  ZERO                       TO  ó|Oc.       
   623  006230*                                                                 
   624  006240*--< NO.17 >                                                      
   625  006250     MOVE  ZERO                       TO  ó|Oc. 
   626  006260*                                                                 
   627  006270*--< NO.18 >                                                      
   628  006280     MOVE  xnrghmldhr`h|ݕtʌ                   
   629  006290                                      TO  ó|ݕtʌ.       
   630  006300*                                                                 
   631  006310*--< NO.19 >                                                      
   632  006320     COMPUTE  ó|ݕtʌ                              
   633  006330         =  xnrghmldhr`h|ݕtʌ  *  v|ŗ.
   634  006340*                                                                 
   635  006350*--< NO.20 >                                                      
   636  006360     MOVE  xnrghmldhr`h|ғY                   
   637  006370                                      TO  ó|ғY.       
   638  006380*                                                                 
   639  006390*--< NO.21 >                                                      
   640  006400     MOVE  xnrghmldhr`h|i                       
   641  006410                                      TO  ó|i.           
   642  006420*                                                                 
   643  006430*--< NO.22 >                                                      
   644  006440     MOVE  ZERO                       TO  ó|Sێc.         
   645  006450*                                                                 
   646  006460*--< NO.23 >                                                      
   647  006470     PERFORM  Mpی敪ҏW.                                   
   648  006480     MOVE  v|Mpیtۋ敪       TO  ó|Mpی敪.     
   649  006490*                                                                 
   650  006500*--< NO.24 >                                                      
   651  006510     MOVE  xnrghmldhr`h|Mpی                 
   652  006520                                      TO  ó|Mpی.     
   653  006530*                                                                 
   654  006540*--< NO.25 >                                                      
   655  006550     MOVE  xnrghmldhr`h|_z                     
   656  006560                                      TO  ó|_z.         
   657  006570*                                                                 
   658  006580*--< NO.26 >                                                      
   659  006590     MOVE  xnrghmldhr`h|                       
   660  006600                                      TO  ó|.           
   661  006610*                                                                 
   662  006620*--< NO.27 >                                                      
Pro*COBOL: Release 9.2.0.1.0 - Production on  Apr 8 16:52:26 2005

Copyright (c) 1982, 2002, Oracle Corporation.  All rights reserved.

   663  006630     MOVE  xnrghmldhr`h|Jn                     
   664  006640                                      TO  ó|Jn.         
   665  006650*                                                                 
   666  006660*--< NO.28 >                                                      
   667  006670     MOVE  xnrghmldhr`h|׎x                 
   668  006680                                      TO  ó|׎x.     
   669  006690*                                                                 
   670  006700*--< NO.29 >                                                      
   671  006710     PERFORM  vZҏW.                                       
   672  006720     MOVE  v|vZ               TO  ó|vZ.         
   673  006730*                                                                 
   674  006740*--< NO.30 >                                                      
   675  006750     MOVE  xnrghmldhr`h|TCN                 
   676  006760                                      TO  ó|TCN.     
   677  006770*                                                                 
   678  006780*--< NO.31 >                                                      
   679  006790     MOVE  xnrghmldhr`h|؊Jn                   
   680  006800                                      TO  ó|؊JnN.   
   681  006810*                                                                 
   682  006820*--< NO.32 >                                                      
   683  006830     MOVE  xnrghmldhr`h|tOP               
   684  006840                                      TO  ó|tOP.     
   685  006850*                                                                 
   686  006860*--< NO.33 >                                                      
   687  006870     MOVE  xnrghmldhr`h|tOQ               
   688  006880                                      TO  ó|tOQ.     
   689  006890*                                                                 
   690  006900*--< NO.34 >                                                      
   691  006910     MOVE  xnrghmldhr`h|cz                       
   692  006920                                      TO  ó|cz.           
   693  006930*                                                                 
   694  006940*--< NO.35 >                                                      
   695  006950     MOVE  xnrghmldhr`h|k                     
   696  006960                                      TO  ó|k.         
   697  006970*                                                                 
   698  006980*--< NO.36 >                                                      
   699  006990     MOVE  xnrghmldhr`h|Nx敪                 
   700  007000                                      TO  ó|ً敪.         
   701  007010*                                                                 
   702  007020*--< NO.37 >                                                      
   703  007030     MOVE  xnrghmldhr`h|̍c                   
   704  007040                                      TO  ó|̍c.       
   705  007050*                                                                 
   706  007060*--< NO.38 >                                                      
   707  007070     COMPUTE  ó|̍c                              
   708  007080          =  xnrghmldhr`h|̍c *  v|ŗ.
   709  007090*                                                                 
   710  007100*--< NO.39 >                                                      
   711  007110     MOVE  xnrghmldhr`h|̌{c                   
   712  007120                                      TO  ó|̌{c.       
   713  007130*                                                                 
   714  007140*--< NO.40 >                                                      
   715  007150     MOVE  xnrghmldhr`h|c                     
   716  007160                                      TO  ó|c.     
   717  007170*                                                                 
   718  007180*--< NO.41 >                                                      
   719  007190     MOVE  xnrghmldhr`h|{c                     
   720  007200                                      TO  ó|{c.     
   721  007210*                                                                 
   722  007220*--< NO.42 >                                                      
   723  007230     MOVE  ZERO                       TO  ó|mc.   
   724  007240*                                                                 
Pro*COBOL: Release 9.2.0.1.0 - Production on  Apr 8 16:52:26 2005

Copyright (c) 1982, 2002, Oracle Corporation.  All rights reserved.

   725  007250*--< NO.43 >                                                      
   726  007260     MOVE  ZERO                       TO  ó|m{c.   
   727  007270*                                                                 
   728  007280*--< NO.44 >                                                      
   729  007290     MOVE  xnrghmldhr`h|{                     
   730  007300                                      TO  ó|{.         
   731  007310*                                                                 
   732  007320*--< NO.45 >                                                      
   733  007330     MOVE  xnrghmldhr`h|                     
   734  007340                                      TO  ó|.         
   735  007350*                                                                 
   736  007360*--< NO.46 >                                                      
   737  007370     MOVE  xnrghmldhr`h|                     
   738  007380                                      TO  ó|.         
   739  007390*                                                                 
   740  007400*--< NO.47 >                                                      
   741  007410     MOVE  xnrghmldhr`h|a                   
   742  007420                                      TO  ó|a.       
   743  007430*                                                                 
   744  007440*--< NO.48 >                                                      
   745  007450     MOVE  xnrghmldhr`h|pz                     
   746  007460                                      TO  ó|pz.         
   747  007470*                                                                 
   748  007480*--< NO.49 >                                                      
   749  007490     MOVE  xnrghmldhr`h|Œ藘                     
   750  007500                                      TO  ó|Œ藘.         
   751  007510*                                                                 
   752  007520*--< NO.50 >                                                      
   753  007530     MOVE  xnrghmldhr`h|ϓ敪                 
   754  007540                                      TO  ó|ϓ敪.     
   755  007550*                                                                 
   756  007560*--< NO.51 >                                                      
   757  007570     MOVE  xnrghmldhr`h|Xvbh                   
   758  007580                                      TO  ó|Xvbh.       
   759  007590*                                                                 
   760  007600*--< NO.52 >                                                      
   761  007610     MOVE  xnrghmldhr`h|A敪                 
   762  007620                                      TO  ó|A敪.     
   763  007630*                                                                 
   764  007640*--< NO.53 >                                                      
   765  007650     MOVE  SPACE                      TO  ó|l.             
   766  007660*                                                                 
   767  007670*--< NO.54 >                                                      
   768  007680     MOVE  ZERO                       TO  ó|ΊO{c.     
   769  007690*                                                                 
   770  007700*--< NO.55 >                                                      
   771  007710     MOVE  ó|ΊOc         TO ó|OΊOc.
   772  007720*                                                                 
   773  007730*--< NO.56 >                                                      
   774  007740     MOVE  ó|ΊOc   TO                          
   775  007750                                   ó|OΊOc.
   776  007760*                                                                 
   777  007770*--< NO.57 >                                                      
   778  007780     MOVE  ó|{c         TO ó|OΊO{c.
   779  007790*                                                                 
   780  007800*--< NO.58 >                                                      
   781  007810     MOVE  ZERO                       TO  ó|OOc. 
   782  007820*                                                                 
   783  007830*--< NO.59 >                                                      
   784  007840     MOVE  ZERO                       TO                          
   785  007850                                     ó|OOc.
   786  007860*                                                                 
Pro*COBOL: Release 9.2.0.1.0 - Production on  Apr 8 16:52:26 2005

Copyright (c) 1982, 2002, Oracle Corporation.  All rights reserved.

   787  007870*--< NO.60 >                                                      
   788  007880     MOVE  ó|ݕtʌ           TO  ó|Oݕtʌ. 
   789  007890*                                                                 
   790  007900*--< NO.61 >                                                      
   791  007910     MOVE  ó|ݕtʌ     TO                          
   792  007920                                     ó|Oݕtʌ.
   793  007930*                                                                 
   794  007940*--< NO.62 >                                                      
   795  007950     MOVE  ó|ғY           TO  ó|OғY. 
   796  007960*                                                                 
   797  007970*--< NO.63 >                                                      
   798  007980     MOVE  ó|i               TO  ó|Oi.     
   799  007990*                                                                 
   800  008000*--< NO.64 >                                                      
   801  008010     MOVE  "9"                        TO  ó|񗝗R.         
   802  008020*                                                                 
   803  008030*--< NO.65 >                                                      
   804  008040     MOVE  xnrghmjhgnm|敪                       
   805  008050                                      TO  ó|敪.         
   806  008060*                                                                 
   807  008070*--< NO.66 >                                                      
   808  008080     MOVE  cRP|۔F敪           TO  ó|۔F敪.         
   809  008090*                                                                 
   810  008100*--< NO.67 >                                                      
   811  008110     COMPUTE  ó|c                          
   812  008120           =  xnrghmldhr`h|c  *  v|ŗ.
   813  008130*                                                                 
   814  008140*--< NO.68 >                                                      
   815  008150     COMPUTE  ó|                                
   816  008160           =  xnrghmldhr`h|  *  v|ŗ.
   817  008170*                                                                 
   818  008180*--< No.69 >                                                      
   819  008190     MOVE  v|VXet           TO  ó|o^N.       
   820  008200*                                                                 
   821  008210*--< No.70 >                                                      
   822  008220     MOVE  v|VXe           TO  ó|o^.         
   823  008230*                                                                 
   824  008240*--< No.71 >                                                      
   825  008250     MOVE  v|S                 TO  ó|o^S.       
   826  008260*                                                                 
   827  008270*--< No.72 >                                                      
   828  008280     MOVE  v|VXet           TO  ó|XVN.       
   829  008290*                                                                 
   830  008300*--< No.73 >                                                      
   831  008310     MOVE  v|VXe           TO  ó|XV.         
   832  008320*                                                                 
   833  008330*--< No.74 >                                                      
   834  008340     MOVE  v|S                 TO  ó|XV.           
   835  008350*                                                                 
   836  008360*--< No.75 >                                                      
   837  008370     MOVE  v|S                 TO  ó|͒S҃R[h. 
   838  008380*                                                                 
   839  008390 ҏW|dwhs.                                              
   840  008400     EXIT.                                                        
   841  008410*                                                                 
   842  008420******************************************************************
   843  008430*    ă[X񐔕ҏW                                            *
   844  008440******************************************************************
   845  008450 ă[X񐔕ҏW                     SECTION.                    
   846  008460 ă[X񐔕ҏW|rs`qs.                                    
   847  008470*                                                                 
   848  008480     EXEC  SQL                                                    
Pro*COBOL: Release 9.2.0.1.0 - Production on  Apr 8 16:52:26 2005

Copyright (c) 1982, 2002, Oracle Corporation.  All rights reserved.

   849  008490        SELECT  MAX(ă[X)                                 
   850  008500          INTO  :hjnOOQ|ă[X                       
   851  008510          FROM  IKOTBL002                                         
   852  008520         WHERE  _mn  =  :xnrghmldhr`h|_mn  
   853  008530           AND  菈R[h                              
   854  008540                          =  :xnrghmldhr`h|R[h
   855  008550     END-EXEC.                                                    
   856  008560*                                                                 
   857  008570*--< ă[X񐔎擾mF >                                     
   858  008580     EVALUATE  SQLCODE                                            
   859  008590*--<    擾 >                                                
   860  008600        WHEN  萔|rpknj                                    
   861  008610           MOVE  hjnOOQ|ă[X                       
   862  008620                                      TO  vr|ă[X      
   863  008630*--<    擾G[ >                                              
   864  008640        WHEN  OTHER                                               
   865  008650           MOVE  ZERO                 TO  vr|ă[X      
   866  008660     END-EVALUATE.                                                
   867  008670*                                                                 
   868  008680 ă[X񐔕ҏW|dwhs.                                      
   869  008690     EXIT.                                                        
   870  008700*                                                                 
   871  008710******************************************************************
   872  008720*    _ޕҏW                                                *
   873  008730******************************************************************
   874  008740 _ޕҏW                         SECTION.                    
   875  008750 _ޕҏW|rs`qs.                                        
   876  008760*                                                                 
   877  008770     EXEC  SQL                                                    
   878  008780        SELECT  MIN(_)                                     
   879  008790          INTO  :hjnOOQ|_                           
   880  008800          FROM  IKOTBL002                                         
   881  008810         WHERE  _mn  =  :xnrghmldhr`h|_mn  
   882  008820           AND  菈R[h                              
   883  008830                          =  :xnrghmldhr`h|R[h
   884  008840           AND  ă[X  =  :vr|ă[X              
   885  008850     END-EXEC.                                                    
   886  008860*                                                                 
   887  008870*--< ă[X񐔎擾mF >                                     
   888  008880     EVALUATE  SQLCODE                                            
   889  008890*--<    擾 >                                                
   890  008900        WHEN  萔|rpknj                                    
   891  008910           MOVE  hjnOOQ|_                           
   892  008920                                      TO  vr|_          
   893  008930*--<    擾G[ >                                              
   894  008940        WHEN  OTHER                                               
   895  008950           MOVE  ZERO                 TO  vr|_          
   896  008960*                                                                 
   897  008970     END-EVALUATE.                                                
   898  008980*                                                                 
   899  008990 _ޕҏW|dwhs.                                          
   900  009000     EXIT.                                                        
   901  009010*                                                                 
   902  009020******************************************************************
   903  009030*    _敪ҏW                                              *
   904  009040******************************************************************
   905  009050 _敪ҏW                       SECTION.                    
   906  009060 _敪ҏW|rs`qs.                                      
   907  009070*                                                                 
   908  009080     EXEC  SQL                                                    
   909  009090        SELECT  _敪                                        
   910  009100          INTO  :hjnOOQ|_敪                         
Pro*COBOL: Release 9.2.0.1.0 - Production on  Apr 8 16:52:26 2005

Copyright (c) 1982, 2002, Oracle Corporation.  All rights reserved.

   911  009110          FROM  IKOTBL002                                         
   912  009120         WHERE  _mn  =  :xnrghmldhr`h|_mn  
   913  009130           AND  菈R[h                              
   914  009140                          =  :xnrghmldhr`h|R[h
   915  009150           AND  _  =  :vr|_                      
   916  009160           AND  ă[X          =  :vr|ă[X      
   917  009170     END-EXEC.                                                    
   918  009180*                                                                 
   919  009190*--< ă[X񐔎擾mF >                                     
   920  009200     EVALUATE  SQLCODE                                            
   921  009210*--<    擾 >                                                
   922  009220        WHEN  萔|rpknj                                    
   923  009230           CONTINUE                                               
   924  009240*--<    擾G[ >                                              
   925  009250        WHEN  OTHER                                               
   926  009260           MOVE  ZERO                 TO  hjnOOQ|_敪
   927  009270*                                                                 
   928  009280     END-EVALUATE.                                                
   929  009290*                                                                 
   930  009300 _敪ҏW|dwhs.                                        
   931  009310     EXIT.                                                        
   932  009320*                                                                 
   933  009330******************************************************************
   934  009340*    _R[hҏW                                            *
   935  009350******************************************************************
   936  009360 _R[hҏW                     SECTION.                    
   937  009370 _R[hҏW|rs`qs.                                    
   938  009380*                                                                 
   939  009390     EXEC  SQL                                                    
   940  009400        SELECT  }                                              
   941  009410          INTO  :hjnOOP|}                               
   942  009420          FROM  IKOTBL001                                         
   943  009430         WHERE  R[h          =  :vr|Ǘ^MR[h  
   944  009440           AND  ړIbc              =  '2'                      
   945  009450           AND  VR[h        =  :vr|VR[h    
   946  009460     END-EXEC.                                                    
   947  009470*                                                                 
   948  009480*--< }Ԏ擾mF >                                             
   949  009490     EVALUATE  SQLCODE                                            
   950  009500*--<    擾 >                                                
   951  009510        WHEN  萔|rpknj                                    
   952  009520           CONTINUE                                               
   953  009530*--<    擾G[ >                                              
   954  009540        WHEN  OTHER                                               
   955  009550           MOVE  ZERO                 TO  hjnOOP|}      
   956  009560*                                                                 
   957  009570     END-EVALUATE.                                                
   958  009580*                                                                 
   959  009590 _R[hҏW|dwhs.                                      
   960  009600     EXIT.                                                        
   961  009610*                                                                 
   962  009620******************************************************************
   963  009630*    _ee[uǍ                                    *
   964  009640******************************************************************
   965  009650 _ee[uǍ             SECTION.                    
   966  009660 _ee[uǍ|rs`qs.                            
   967  009670*                                                                 
   968  009680     EXEC  SQL                                                    
   969  009690        SELECT  _񌏖                                          
   970  009700               ,۔F敪                                          
   971  009710          INTO  :cRP|_񌏖                                 
   972  009720               ,:cRP|۔F敪                                 
Pro*COBOL: Release 9.2.0.1.0 - Production on  Apr 8 16:52:26 2005

Copyright (c) 1982, 2002, Oracle Corporation.  All rights reserved.

   973  009730          FROM  D31KYK_TBL                                        
   974  009740         WHERE  _ԍ    =  :xnrghmldhr`h|_mn
   975  009750           AND  ă[X          =  :vr|ă[X      
   976  009760     END-EXEC.                                                    
   977  009770*                                                                 
   978  009780*--< _eǍmF >                                         
   979  009790     EVALUATE  SQLCODE                                            
   980  009800*--<    Ǎ >                                                
   981  009810        WHEN  萔|rpknj                                    
   982  009820           COMPUTE  v|͂R|  =  v|͂R|  +  1   
   983  009830*--<    ǍG[ >                                              
   984  009840        WHEN  OTHER                                               
   985  009850           MOVE  ZERO                 TO  cRP|_񌏖        
   986  009860           MOVE  ZERO                 TO  cRP|۔F敪        
   987  009870*                                                                 
   988  009880     END-EVALUATE.                                                
   989  009890*                                                                 
   990  009900 _ee[uǍ|dwhs.                              
   991  009910     EXIT.                                                        
   992  009920*                                                                 
   993  009930******************************************************************
   994  009940*    e[uǍ                                        *
   995  009950******************************************************************
   996  009960 e[uǍ                 SECTION.                    
   997  009970 e[uǍ|rs`qs.                                
   998  009980*                                                                 
   999  009990*--< ŐVŋ敪擾 >                                         
  1000  010000     EXEC  SQL                                                    
  1001  010010        SELECT  ŐVŋ敪                                    
  1002  010020          INTO  :cRQ|ŐVŋ敪                           
  1003  010030          FROM  D32SAK_TBL                                        
  1004  010040         WHERE  _ԍ  =  :xnrghmldhr`h|_mn  
  1005  010050           AND  ă[X                                      
  1006  010060                                      =  :vr|ă[X      
  1007  010070           AND  _              =  :vr|_          
  1008  010080     END-EXEC.                                                    
  1009  010090*                                                                 
  1010  010100*--< ŐVŋ敪擾mF >                                   
  1011  010110     EVALUATE  SQLCODE                                            
  1012  010120*--<    ŗ擾 >                                        
  1013  010130        WHEN  萔|rpknj                                    
  1014  010140           EVALUATE  cRQ|ŐVŋ敪                       
  1015  010150              WHEN  "11"                                          
  1016  010160                 MOVE   0.03          TO  v|ŗ            
  1017  010170              WHEN  "12"                                          
  1018  010180                 MOVE   0.05          TO  v|ŗ            
  1019  010190              WHEN  OTHER                                         
  1020  010200                 MOVE   ZERO          TO  v|ŗ            
  1021  010210           END-EVALUATE                                           
  1022  010220           COMPUTE  v|͂S|  =  v|͂S|  +  1   
  1023  010230*--<    ŗ擾G[ >                                      
  1024  010240        WHEN  OTHER                                               
  1025  010250           MOVE  ZERO                 TO  cRQ|ŐVŋ敪  
  1026  010260           MOVE  0.05                 TO  v|ŗ            
  1027  010270     END-EVALUATE.                                                
  1028  010280*                                                                 
  1029  010290 e[uǍ|dwhs.                                  
  1030  010300     EXIT.                                                        
  1031  010310*                                                                 
  1032  010320******************************************************************
  1033  010330*    Mpی敪ҏW                                            *
  1034  010340******************************************************************
Pro*COBOL: Release 9.2.0.1.0 - Production on  Apr 8 16:52:26 2005

Copyright (c) 1982, 2002, Oracle Corporation.  All rights reserved.

  1035  010350 Mpی敪ҏW                     SECTION.                    
  1036  010360 Mpی敪ҏW|rs`qs.                                    
  1037  010370*                                                                 
  1038  010380*--< Mpیtۋ敪R[hϊ >                                 
  1039  010390     EVALUATE  xnrghmldhr`h|Mpیtۋ敪         
  1040  010400        WHEN  ZERO                                                
  1041  010410           MOVE  ZERO                 TO  v|Mpیtۋ敪    
  1042  010420        WHEN  OTHER                                               
  1043  010430           MOVE  "1"                  TO  v|Mpیtۋ敪    
  1044  010440*                                                                 
  1045  010450     END-EVALUATE.                                                
  1046  010460*                                                                 
  1047  010470 Mpی敪ҏW|dwhs.                                      
  1048  010480     EXIT.                                                        
  1049  010490*                                                                 
  1050  010500******************************************************************
  1051  010510*    vZҏW                                                *
  1052  010520******************************************************************
  1053  010530 vZҏW                         SECTION.                    
  1054  010540 vZҏW|rs`qs.                                        
  1055  010550*                                                                 
  1056  010560*--< Mpیtۋ敪R[hϊ >                                 
  1057  010570     EVALUATE  xnrghmldhr`h|vZ                 
  1058  010580        WHEN  ZERO                                                
  1059  010590           MOVE  "1"                  TO  v|vZ            
  1060  010600        WHEN  "1"                                                 
  1061  010610           EVALUATE  xnrghmldhr`h|TCN       
  1062  010620              WHEN  "12"                                          
  1063  010630                 MOVE  ZERO           TO  v|vZ            
  1064  010640              WHEN  OTHER                                         
  1065  010650                 MOVE  "2"            TO  v|vZ            
  1066  010660           END-EVALUATE                                           
  1067  010670        WHEN  "2"                                                 
  1068  010680           MOVE  "2"                  TO  v|vZ            
  1069  010690*                                                                 
  1070  010700     END-EVALUATE.                                                
  1071  010710*                                                                 
  1072  010720 vZҏW|dwhs.                                          
  1073  010730     EXIT.                                                        
  1074  010740*                                                                 
  1075  010750******************************************************************
  1076  010760*    o͏                                                    *
  1077  010770******************************************************************
  1078  010780 o͏                             SECTION.                    
  1079  010790 o͏|rs`qs.                                            
  1080  010800*                                                                 
  1081  010810     WRITE  ó|R[h.                                       
  1082  010820*                                                                 
  1083  010830*----------------------------------------------------------------*
  1084  010840*    t@CԔ                                            *
  1085  010850*----------------------------------------------------------------*
  1086  010860     EVALUATE   v|t@C                                  
  1087  010870*--<    o͌P̉Z >                                        
  1088  010880        WHEN  ZERO                                                
  1089  010890           COMPUTE  v|ó|    =  v|ó|  +  1     
  1090  010900*--<    R[hϊe[uo̓G[ >                      
  1091  010910        WHEN  OTHER                                               
  1092  010920           MOVE  -50                  TO  v|G[R[h        
  1093  010930           PERFORM  G[菈                                
  1094  010940     END-EVALUATE.                                                
  1095  010950*                                                                 
  1096  010960 o͏|dwhs.                                              
Pro*COBOL: Release 9.2.0.1.0 - Production on  Apr 8 16:52:26 2005

Copyright (c) 1982, 2002, Oracle Corporation.  All rights reserved.

  1097  010970     EXIT.                                                        
  1098  010980*                                                                 
  1099  010990******************************************************************
  1100  011000*    I                                                    *
  1101  011010******************************************************************
  1102  011020 I                             SECTION.                    
  1103  011030 I|rs`qs.                                            
  1104  011040*                                                                 
  1105  011050*--< caN[Y >                                               
  1106  011060     PERFORM  caN[Y.                                   
  1107  011070*                                                                 
  1108  011080*--< t@CN[Y >                                           
  1109  011090     CLOSE  o̓t@C.                                         
  1110  011100*                                                                 
  1111  011110*--< bZ[Wo͏ >                                     
  1112  011120     PERFORM  bZ[Wo.                                 
  1113  011130*                                                                 
  1114  011140*--< IbZ[Wo͏ >                                     
  1115  011150     PERFORM  IbZ[Wo.                                 
  1116  011160*                                                                 
  1117  011170*--< vOI >                                         
  1118  011180     MOVE  萔|             TO  PROGRAM-STATUS.         
  1119  011190*                                                                 
  1120  011200 I|dwhs.                                              
  1121  011210     EXIT.                                                        
  1122  011220*                                                                 
  1123  011230******************************************************************
  1124  011240*    caN[Y                                                *
  1125  011250******************************************************************
  1126  011260 caN[Y                     SECTION.                    
  1127  011270 caN[Y|rs`qs.                                    
  1128  011280*                                                                 
  1129  011290*--< J[\ N[Y >                                          
  1130  011300     EXEC SQL                                                     
  1131  011310        CLOSE  CUR1                                               
  1132  011320     END-EXEC.                                                    
  1133  011330*                                                                 
  1134  011340 caN[Y|dwhs.                                      
  1135  011350     EXIT.                                                        
  1136  011360*                                                                 
  1137  011370******************************************************************
  1138  011380*    bZ[Wo                                          *
  1139  011390******************************************************************
  1140  011400 bZ[Wo                   SECTION.                    
  1141  011410 bZ[Wó|rs`qs.                                  
  1142  011420*                                                                 
  1143  011430     INITIALIZE                       IF-CHOCO001.                
  1144  011440     MOVE  "3"                        TO  P|Cxg.     
  1145  011450     MOVE  萔|vOhc       TO  P|\[Xhc.       
  1146  011460     MOVE  "0"                        TO  P|AR[h.       
  1147  011470     MOVE  "YSKIHON"                  TO  P|e[uhc. 
  1148  011480     MOVE  "COUNT"                    TO  P|.         
  1149  011490     MOVE  v|͂P|           TO  P|f[^e.       
  1150  011500     MOVE  "^M({)Ǎ"       TO  P|̑bZ[W. 
  1151  011510     CALL  CLOCO001                USING  IF-CHOCO001.            
  1152  011520*                                                                 
  1153  011530     INITIALIZE                       IF-CHOCO001.                
  1154  011540     MOVE  "3"                        TO  P|Cxg.     
  1155  011550     MOVE  萔|vOhc       TO  P|\[Xhc.       
  1156  011560     MOVE  "0"                        TO  P|AR[h.       
  1157  011570     MOVE  "YSMEISAI"                 TO  P|e[uhc. 
  1158  011580     MOVE  "COUNT"                    TO  P|.         
Pro*COBOL: Release 9.2.0.1.0 - Production on  Apr 8 16:52:26 2005

Copyright (c) 1982, 2002, Oracle Corporation.  All rights reserved.

  1159  011590     MOVE  v|͂Q|           TO  P|f[^e.       
  1160  011600     MOVE  "^M()Ǎ"       TO  P|̑bZ[W. 
  1161  011610     CALL  CLOCO001                USING  IF-CHOCO001.            
  1162  011620*                                                                 
  1163  011630     INITIALIZE                       IF-CHOCO001.                
  1164  011640     MOVE  "3"                        TO  P|Cxg.     
  1165  011650     MOVE  萔|vOhc       TO  P|\[Xhc.       
  1166  011660     MOVE  "0"                        TO  P|AR[h.       
  1167  011670     MOVE  "D31KYK"                   TO  P|e[uhc. 
  1168  011680     MOVE  "COUNT"                    TO  P|.         
  1169  011690     MOVE  v|͂R|           TO  P|f[^e.       
  1170  011700     MOVE  "_eǍ"         TO  P|̑bZ[W. 
  1171  011710     CALL  CLOCO001                USING  IF-CHOCO001.            
  1172  011720*                                                                 
  1173  011730     INITIALIZE                       IF-CHOCO001.                
  1174  011740     MOVE  "3"                        TO  P|Cxg.     
  1175  011750     MOVE  萔|vOhc       TO  P|\[Xhc.       
  1176  011760     MOVE  "0"                        TO  P|AR[h.       
  1177  011770     MOVE  "D32SAK"                   TO  P|e[uhc. 
  1178  011780     MOVE  "COUNT"                    TO  P|.         
  1179  011790     MOVE  v|͂S|           TO  P|f[^e.       
  1180  011800     MOVE  "Ǎ"             TO  P|̑bZ[W. 
  1181  011810     CALL  CLOCO001                USING  IF-CHOCO001.            
  1182  011820*                                                                 
  1183  011830     INITIALIZE                       IF-CHOCO001.                
  1184  011840     MOVE  "3"                        TO  P|Cxg.     
  1185  011850     MOVE  萔|vOhc       TO  P|\[Xhc.       
  1186  011860     MOVE  "0"                        TO  P|AR[h.       
  1187  011870     MOVE  "FFUIS660"                 TO  P|e[uhc. 
  1188  011880     MOVE  "COUNT"                    TO  P|.         
  1189  011890     MOVE  v|ó|             TO  P|f[^e.       
  1190  011900     MOVE  "Ǘ^M_(PS)o͌" TO  P|̑bZ[W. 
  1191  011910     CALL  CLOCO001                USING  IF-CHOCO001.            
  1192  011920*                                                                 
  1193  011930 bZ[Wó|dwhs.                                    
  1194  011940     EXIT.                                                        
  1195  011950*                                                                 
  1196  011960******************************************************************
  1197  011970*    IbZ[Wo                                          *
  1198  011980******************************************************************
  1199  011990 IbZ[Wo                   SECTION.                    
  1200  012000 IbZ[Wó|rs`qs.                                  
  1201  012010*                                                                 
  1202  012020     INITIALIZE                       IF-CHOCO001.                
  1203  012030     MOVE  "3"                        TO  P|Cxg.     
  1204  012040     MOVE  萔|vOhc       TO  P|\[Xhc.       
  1205  012050     MOVE  "0"                        TO  P|AR[h.       
  1206  012060     MOVE  "END"                      TO  P|.         
  1207  012070     MOVE  萔|vO         TO  P|̑bZ[W. 
  1208  012080     CALL  CLOCO001                USING  IF-CHOCO001.            
  1209  012090*                                                                 
  1210  012100 IbZ[Wó|dwhs.                                    
  1211  012110     EXIT.                                                        
  1212  012120*                                                                 
  1213  012130******************************************************************
  1214  012140*    G[菈                                              *
  1215  012150******************************************************************
  1216  012160 G[菈                       SECTION.                    
  1217  012170 G[菈|rs`qs.                                      
  1218  012180*                                                                 
  1219  012190     MOVE  "Y"                        TO  v|ُI|tO.   
  1220  012200     INITIALIZE                       IF-CHOCO001.                
Pro*COBOL: Release 9.2.0.1.0 - Production on  Apr 8 16:52:26 2005

Copyright (c) 1982, 2002, Oracle Corporation.  All rights reserved.

  1221  012210*                                                                 
  1222  012220     EVALUATE  v|G[R[h                                   
  1223  012230*                                                                 
  1224  012240        WHEN  -10                                                 
  1225  012250*                                                                 
  1226  012260*--<       nq`bkdڑs >                                 
  1227  012270           MOVE  "1"                  TO  P|Cxg      
  1228  012280           MOVE  萔|vOhc TO  P|\[Xhc        
  1229  012290           MOVE  "9"                  TO  P|AR[h        
  1230  012300           MOVE  "CONNECT"            TO  P|          
  1231  012310           MOVE  SQLCODE              TO  P|f[^e        
  1232  012320           MOVE  SQLERRMC             TO  P|̑bZ[W  
  1233  012330           CALL  CLOCO001          USING  IF-CHOCO001             
  1234  012340*                                                                 
  1235  012350        WHEN  -20                                                 
  1236  012360*                                                                 
  1237  012370*--<       e[uJ[\`s >                         
  1238  012380           MOVE  "1"                  TO  P|Cxg      
  1239  012390           MOVE  萔|vOhc TO  P|\[Xhc        
  1240  012400           MOVE  "9"                  TO  P|AR[h        
  1241  012410           MOVE  "YSMEISAI"           TO  P|e[uhc  
  1242  012420           MOVE  "OPEN"               TO  P|          
  1243  012430           MOVE  SQLCODE              TO  P|f[^e        
  1244  012440           MOVE  SQLERRMC             TO  P|̑bZ[W  
  1245  012450           CALL  CLOCO001          USING  IF-CHOCO001             
  1246  012460*                                                                 
  1247  012470        WHEN  -30                                                 
  1248  012480*                                                                 
  1249  012490*--<       Ǘ^M_t@CI[vG[ >                   
  1250  012500           MOVE  "1"                  TO  P|Cxg      
  1251  012510           MOVE  萔|vOhc TO  P|\[Xhc        
  1252  012520           MOVE  "9"                  TO  P|AR[h        
  1253  012530           MOVE  "FFUIS660"           TO  P|e[uhc  
  1254  012540           MOVE  "OPEN"               TO  P|          
  1255  012550           MOVE  v|t@C     TO  P|f[^e        
  1256  012560           MOVE  "Ǘ^M_t@CI[vG[ "            
  1257  012570                                      TO  P|̑bZ[W  
  1258  012580           CALL  CLOCO001          USING  IF-CHOCO001             
  1259  012590*                                                                 
  1260  012600        WHEN  -40                                                 
  1261  012610*                                                                 
  1262  012620*--<       e[uǍs >                                 
  1263  012630           MOVE  "1"                  TO  P|Cxg      
  1264  012640           MOVE  萔|vOhc TO  P|\[Xhc        
  1265  012650           MOVE  "9"                  TO  P|AR[h        
  1266  012660           MOVE  "YSMEISAI"           TO  P|e[uhc  
  1267  012670           MOVE  "FETCH"              TO  P|          
  1268  012680           MOVE  SQLCODE              TO  P|f[^e        
  1269  012690           MOVE  SQLERRMC             TO  P|̑bZ[W  
  1270  012700           CALL  CLOCO001          USING  IF-CHOCO001             
  1271  012710*                                                                 
  1272  012720        WHEN  -50                                                 
  1273  012730*                                                                 
  1274  012740*--<       Ǘ^M_t@Co͏s >                     
  1275  012750           MOVE  "1"                  TO  P|Cxg      
  1276  012760           MOVE  萔|vOhc TO  P|\[Xhc        
  1277  012770           MOVE  "9"                  TO  P|AR[h        
  1278  012780           MOVE  "SFHSED25"           TO  P|e[uhc  
  1279  012790           MOVE  "WRITE"              TO  P|          
  1280  012800           MOVE  v|t@C     TO  P|f[^e        
  1281  012810           MOVE  "Ǘ^M_t@Co̓G["                 
  1282  012820                                      TO  P|̑bZ[W  
Pro*COBOL: Release 9.2.0.1.0 - Production on  Apr 8 16:52:26 2005

Copyright (c) 1982, 2002, Oracle Corporation.  All rights reserved.

  1283  012830           CALL  CLOCO001          USING  IF-CHOCO001             
  1284  012840*                                                                 
  1285  012850        WHEN  OTHER                                               
  1286  012860           MOVE  "N"                  TO  v|ُI|tO    
  1287  012870     END-EVALUATE.                                                
  1288  012880*                                                                 
  1289  012890     IF v|ُI|tO  =  "Y"                              
  1290  012900*--<    bZ[Wo͏ >                                  
  1291  012910        PERFORM  bZ[Wo                               
  1292  012920*                                                                 
  1293  012930*--<    IbZ[Wo͏ >                                  
  1294  012940        PERFORM  IbZ[Wo                               
  1295  012950*                                                                 
  1296  012960*--<    vO^[R[h >                                
  1297  012970        MOVE  萔|ُ          TO  PROGRAM-STATUS          
  1298  012980*                                                                 
  1299  012990        EXIT  PROGRAM                                             
  1300  013000     END-IF.                                                      
  1301  013010*                                                                 
  1302  013020 G[菈|dwhs.                                        
  1303  013030     EXIT.                                                        
  1304  013040*                                                                 
  1305  013050******************************************************************
  1306  013060*                  END OF PROGRAM                                *
  1307  013070******************************************************************
t@C: COBIS660.PCON[Y
Pro*COBOL: Release 9.2.0.1.0 - Production on  Apr 8 16:52:26 2005

Copyright (c) 1982, 2002, Oracle Corporation.  All rights reserved.


zXgϐ
--------------

01  DB-STRING                                           Charf(20)
  Z:\COB97\COPYLIB_DB\SQLCOM.CBL      3
  COBIS660.PCO    275

01  PASSWD                                              Charf(10)
  Z:\COB97\COPYLIB_DB\SQLCOM.CBL      5
  COBIS660.PCO    270    274

01  SQLSTATE                                            Charf(5)
  Z:\COB97\COPYLIB_DB\SQLCOM.CBL      2
  COBIS660.PCO    269    273    355    418    525    848    877    908    939    968   1000   1130

01  USERNAME                                            Charf(10)
  Z:\COB97\COPYLIB_DB\SQLCOM.CBL      4
  COBIS660.PCO    270    274

03  cRP|_񌏖 OF _e                        Charf(60)
  Z:\COB97\COPYLIB_DB\D31KYK.CBL     18
  COBIS660.PCO    971

03  cRP|۔F敪 OF _e                        Charf(1)
  Z:\COB97\COPYLIB_DB\D31KYK.CBL    255
  COBIS660.PCO    972

03  cRQ|ŐVŋ敪 OF                       Charf(2)
  Z:\COB97\COPYLIB_DB\D32SAK.CBL     19
  COBIS660.PCO   1002

01  hjnOOP|}                                  Charf(3)
  Z:\COB97\COPYLIB_DB\IKOTBL001.CBL      7
  COBIS660.PCO    941

01  hjnOOP|VR[h                        Charf(7)
  Z:\COB97\COPYLIB_DB\IKOTBL001.CBL      6
  COBIS660.PCO    527

01  hjnOOQ|_                              Charf(3)
  Z:\COB97\COPYLIB_DB\IKOTBL002.CBL     11
  COBIS660.PCO    879

01  hjnOOQ|ă[X                          Decimal(2,0)
  Z:\COB97\COPYLIB_DB\IKOTBL002.CBL      8
  COBIS660.PCO    850

01  hjnOOQ|_敪                            Charf(1)
  Z:\COB97\COPYLIB_DB\IKOTBL002.CBL     12
  COBIS660.PCO    910

03  vr|Ǘ^MR[h OF vr|zXg            Charf(8)
  COBIS660.PCO     70    529    943

03  vr|_ OF vr|zXgϐ                  Charf(3)
  COBIS660.PCO     73    915   1007

03  vr|ă[X OF vr|zXgϐ              Unsigned Display(2,0)
  COBIS660.PCO     72    884    916    975   1006

03  vr|VR[h OF vr|zXgϐ            Charf(7)
Pro*COBOL: Release 9.2.0.1.0 - Production on  Apr 8 16:52:26 2005

Copyright (c) 1982, 2002, Oracle Corporation.  All rights reserved.

  COBIS660.PCO     71    945

01  xnrghmjhgnm|敪                    Charf(1)
  Z:\COB97\COPYLIB_DB\YOSHINKIHON.CBL      8
  COBIS660.PCO    458

01  xnrghmjhgnm|Ǘ^MR[h            Charf(8)
  Z:\COB97\COPYLIB_DB\YOSHINKIHON.CBL      4
  COBIS660.PCO    420

01  xnrghmldhr`h|a                Decimal(13,0)
  Z:\COB97\COPYLIB_DB\YOSHINMEISAI.CBL     42
  COBIS660.PCO    452

01  xnrghmldhr`h|Xvbh                Decimal(11,8)
  Z:\COB97\COPYLIB_DB\YOSHINMEISAI.CBL     48
  COBIS660.PCO    456

01  xnrghmldhr`h|Nx敪              Charf(1)
  Z:\COB97\COPYLIB_DB\YOSHINMEISAI.CBL     32
  COBIS660.PCO    445

01  xnrghmldhr`h|؊Jn                Charf(8)
  Z:\COB97\COPYLIB_DB\YOSHINMEISAI.CBL     17
  COBIS660.PCO    440

01  xnrghmldhr`h|Jn                  Charf(1)
  Z:\COB97\COPYLIB_DB\YOSHINMEISAI.CBL     27
  COBIS660.PCO    436

01  xnrghmldhr`h|R[h                Charf(2)
  Z:\COB97\COPYLIB_DB\YOSHINMEISAI.CBL      9
  COBIS660.PCO    422    854    883    914

01  xnrghmldhr`h|ϓ敪              Charf(1)
  Z:\COB97\COPYLIB_DB\YOSHINMEISAI.CBL     47
  COBIS660.PCO    455

01  xnrghmldhr`h|_mn                  Charf(9)
  Z:\COB97\COPYLIB_DB\YOSHINMEISAI.CBL      8
  COBIS660.PCO    421    852    881    912    974   1004

01  xnrghmldhr`h|_z                  Decimal(13,0)
  Z:\COB97\COPYLIB_DB\YOSHINMEISAI.CBL     24
  COBIS660.PCO    434

01  xnrghmldhr`h|_                    Charf(8)
  Z:\COB97\COPYLIB_DB\YOSHINMEISAI.CBL     14
  COBIS660.PCO    425

01  xnrghmldhr`h|vZ                  Charf(1)
  Z:\COB97\COPYLIB_DB\YOSHINMEISAI.CBL     29
  COBIS660.PCO    438

01  xnrghmldhr`h|k                  Decimal(13,0)
  Z:\COB97\COPYLIB_DB\YOSHINMEISAI.CBL     31
  COBIS660.PCO    444

01  xnrghmldhr`h|                    Charf(8)
  Z:\COB97\COPYLIB_DB\YOSHINMEISAI.CBL     15
  COBIS660.PCO    426

Pro*COBOL: Release 9.2.0.1.0 - Production on  Apr 8 16:52:26 2005

Copyright (c) 1982, 2002, Oracle Corporation.  All rights reserved.

01  xnrghmldhr`h|Œ藘                  Decimal(11,8)
  Z:\COB97\COPYLIB_DB\YOSHINMEISAI.CBL     45
  COBIS660.PCO    454

01  xnrghmldhr`h|cz                    Decimal(13,0)
  Z:\COB97\COPYLIB_DB\YOSHINMEISAI.CBL     25
  COBIS660.PCO    443

01  xnrghmldhr`h|tOP            Charf(2)
  Z:\COB97\COPYLIB_DB\YOSHINMEISAI.CBL     11
  COBIS660.PCO    441

01  xnrghmldhr`h|tOQ            Charf(2)
  Z:\COB97\COPYLIB_DB\YOSHINMEISAI.CBL     12
  COBIS660.PCO    442

01  xnrghmldhr`h|ƏR[h              Charf(4)
  Z:\COB97\COPYLIB_DB\YOSHINMEISAI.CBL     10
  COBIS660.PCO    423

01  xnrghmldhr`h|̌{c                Decimal(13,0)
  Z:\COB97\COPYLIB_DB\YOSHINMEISAI.CBL     34
  COBIS660.PCO    447

01  xnrghmldhr`h|̍c                Decimal(13,0)
  Z:\COB97\COPYLIB_DB\YOSHINMEISAI.CBL     33
  COBIS660.PCO    446

01  xnrghmldhr`h|̓                    Charf(8)
  Z:\COB97\COPYLIB_DB\YOSHINMEISAI.CBL      7
  COBIS660.PCO    424

01  xnrghmldhr`h|Mpی              Decimal(13,0)
  Z:\COB97\COPYLIB_DB\YOSHINMEISAI.CBL     22
  COBIS660.PCO    433

01  xnrghmldhr`h|Mpیtۋ            Charf(1)
  Z:\COB97\COPYLIB_DB\YOSHINMEISAI.CBL     21
  COBIS660.PCO    432

01  xnrghmldhr`h|TCN              Charf(2)
  Z:\COB97\COPYLIB_DB\YOSHINMEISAI.CBL     30
  COBIS660.PCO    439

01  xnrghmldhr`h|ݕtʌ                Decimal(13,0)
  Z:\COB97\COPYLIB_DB\YOSHINMEISAI.CBL     18
  COBIS660.PCO    429

01  xnrghmldhr`h|i                    Decimal(13,0)
  Z:\COB97\COPYLIB_DB\YOSHINMEISAI.CBL     20
  COBIS660.PCO    431

01  xnrghmldhr`h|{c                  Decimal(13,0)
  Z:\COB97\COPYLIB_DB\YOSHINMEISAI.CBL     36
  COBIS660.PCO    448

01  xnrghmldhr`h|c                  Decimal(13,0)
  Z:\COB97\COPYLIB_DB\YOSHINMEISAI.CBL     35
  COBIS660.PCO    428

01  xnrghmldhr`h|                    Charf(2)
  Z:\COB97\COPYLIB_DB\YOSHINMEISAI.CBL     26
Pro*COBOL: Release 9.2.0.1.0 - Production on  Apr 8 16:52:26 2005

Copyright (c) 1982, 2002, Oracle Corporation.  All rights reserved.

  COBIS660.PCO    435

01  xnrghmldhr`h|pz                  Decimal(13,0)
  Z:\COB97\COPYLIB_DB\YOSHINMEISAI.CBL     43
  COBIS660.PCO    453

01  xnrghmldhr`h|ғY                Decimal(13,0)
  Z:\COB97\COPYLIB_DB\YOSHINMEISAI.CBL     19
  COBIS660.PCO    430

01  xnrghmldhr`h|                    Charf(8)
  Z:\COB97\COPYLIB_DB\YOSHINMEISAI.CBL     16
  COBIS660.PCO    427

01  xnrghmldhr`h|{                  Decimal(13,0)
  Z:\COB97\COPYLIB_DB\YOSHINMEISAI.CBL     39
  COBIS660.PCO    449

01  xnrghmldhr`h|                  Decimal(13,0)
  Z:\COB97\COPYLIB_DB\YOSHINMEISAI.CBL     40
  COBIS660.PCO    450

01  xnrghmldhr`h|                  Decimal(13,0)
  Z:\COB97\COPYLIB_DB\YOSHINMEISAI.CBL     41
  COBIS660.PCO    451

01  xnrghmldhr`h|׎x              Charf(3)
  Z:\COB97\COPYLIB_DB\YOSHINMEISAI.CBL     28
  COBIS660.PCO    437

01  xnrghmldhr`h|A敪              Charf(1)
  Z:\COB97\COPYLIB_DB\YOSHINMEISAI.CBL     50
  COBIS660.PCO    457

Pro*COBOL: Release 9.2.0.1.0 - Production on  Apr 8 16:52:26 2005

Copyright (c) 1982, 2002, Oracle Corporation.  All rights reserved.


SQLʎq
---------------

CUR1                  CURSOR                        
  COBIS660.PCO    301    356    419   1131    301

Pro*COBOL: Release 9.2.0.1.0 - Production on  Apr 8 16:52:26 2005

Copyright (c) 1982, 2002, Oracle Corporation.  All rights reserved.



                              vRpCEIvV
-------------------------------------------------------------------------------
IvV   ݂̐ݒl         ݒ
-------------------------------------------------------------------------------
asacc             no                ftHg                                  
assume_sqlcode    no                ftHg                                  
auto_connect      no                ftHg                                  
close_on_commit   yes               mode                                        
comp5             yes               D:\oracle\ora90\precomp\admin\pcbcfg.cfg    
config            default config    ftHg                                  
date_format       local             ftHg                                  
dbms              native            ftHg                                  
declare_section   yes               mode                                        
define            *Ȃ*            ftHg                                  
dynamic           ansi              mode                                        
end_of_fetch      100               mode                                        
eol_padding       yes               ftHg                                  
errors            yes               ftHg                                  
fips              no                ftHg                                  
format            ansi              ftHg                                  
hold_cursor       no                ftHg                                  
host              cobol             ftHg                                  
iname             COBIS660.PCO      R}hC                              
include           Z:\COB97\COPYLIB  D:\oracle\ora90\precomp\admin\pcbcfg.cfg    
                  Z:\COB97\COPYLIB_DD:\oracle\ora90\precomp\admin\pcbcfg.cfg    
                  *Ȃ*            D:\oracle\ora90\precomp\admin\pcbcfg.cfg    
ireclen           132               D:\oracle\ora90\precomp\admin\pcbcfg.cfg    
litdelim          quote             ftHg                                  
lname             *Ȃ*            ftHg                                  
lreclen           132               ftHg                                  
ltype             long              ftHg                                  
maxliteral        160               D:\oracle\ora90\precomp\admin\pcbcfg.cfg    
maxopencursors    10                ftHg                                  
mode              ANSI              D:\oracle\ora90\precomp\admin\pcbcfg.cfg    
nested            yes               ftHg                                  
nls_local         yes               D:\oracle\ora90\precomp\admin\pcbcfg.cfg    
oname             COBIS660.COB      R}hC                              
oraca             no                ftHg                                  
oreclen           80                ftHg                                  
pagelen           66                ftHg                                  
picx              charf             ftHg                                  
prefetch          1                 ftHg                                  
release_cursor    no                ftHg                                  
select_error      yes               ftHg                                  
sqlcheck          FULL              D:\oracle\ora90\precomp\admin\pcbcfg.cfg    
threads           no                ftHg                                  
type_code         ansi              mode                                        
unsafe_null       no                ftHg                                  
userid            LIUGUOSHU/LGS@FIP D:\oracle\ora90\precomp\admin\pcbcfg.cfg    
varchar           no                ftHg                                  
xref              yes               ftHg                                  
Pro*COBOL: Release 9.2.0.1.0 - Production on  Apr 8 16:52:26 2005

Copyright (c) 1982, 2002, Oracle Corporation.  All rights reserved.


v\
----------

^[ER[h: 0
dv Ił̃bZ[W: 0
dv Wł̃bZ[W: 0
dv Eł̃bZ[W: 0
dv Fł̃bZ[W: 0
̓C̐: 2056
錾ꂽzXgϐ̐: 522
J[\̐: 1
̐: 0
gpő僁[(oCg): 575155
