Pro*COBOL: Release 9.2.0.1.0 - Production on  Apr 8 17:03:24 2005

Copyright (c) 1982, 2002, Oracle Corporation.  All rights reserved.

t@C: C:\COB97\SOC\COBIS630\COBIS630.PCOI[v
     1  000010******************************************************************
     2  000020*         CP(A)                                     *
     3  000030*      1. vO    F`ڍs                     *
     4  000040*      2. vOID    FCOBIS630                             *
     5  000050*      3. Tv        F_mnKEYƂA                  *
     6  000060*                           \[g̎`{t@C         *
     7  000070*                           \[g̎`t@C         *
     8  000080*                           }b`Os                 *
     9  000090*      4. 쐬          FI                                 *
    10  000100*      5. 쐬          F2005.04.02                           *
    11  000110******************************************************************
    12  000120*                                                                 
    13  000130******************************************************************
    14  000140*    hcdmshehb`shnm  chuhrhnm              *
    15  000150******************************************************************
    16  000160 IDENTIFICATION                       DIVISION.                   
    17  000170*                                                                 
    18  000180 PROGRAM-ID.                          COBIS630.                   
    19  000190******************************************************************
    20  000200*    dmuhqnmldms        chuhrhnm              *
    21  000210******************************************************************
    22  000220 ENVIRONMENT                          DIVISION.                   
    23  000230******************************************************************
    24  000240*    hmots|ntsots      rdbshnm                *
    25  000250******************************************************************
    26  000260 INPUT-OUTPUT                         SECTION.                    
    27  000270*                                                                 
    28  000280 FILE-CONTROL.                                                    
    29  000290     SELECT    ̓t@CP         ASSIGN    TO     U01        
    30  000300     FILE      STATUS     IS          v|                    
    31  000310     ORGANIZATION         IS          LINE      SEQUENTIAL.       
    32  000320*                                                                 
    33  000330     SELECT    ̓t@CQ         ASSIGN    TO     U02        
    34  000340     FILE      STATUS     IS          v|                    
    35  000350     ORGANIZATION         IS          LINE      SEQUENTIAL.       
    36  000360*                                                                 
    37  000370******************************************************************
    38  000380*    c`s`                      chuhrhnm              *
    39  000390******************************************************************
    40  000400 DATA                                 DIVISION.                   
    41  000410******************************************************************
    42  000420*    ehkd                      rdbshnm                *
    43  000430******************************************************************
    44  000440 FILE                                 SECTION.                    
    45  000450*----------------------------------------------------------------*
    46  000460*    ̓t@C                                                *
    47  000470*----------------------------------------------------------------*
    48  000480 FD  ̓t@CP                                               
    49  000490     LABEL     RECORD     IS          STANDARD                    
    50  000500     BLOCK     CONTAINS   0           RECORDS.                    
    51  000510*                                                                 
    52  000520 01  ͂P|R[h.                                            
    53  000530     COPY  CPBIS061  REPLACING  ==()==  BY  ==͂P|==.         
    54  000540*                                                                 
    55  000550 FD  ̓t@CQ                                               
    56  000560     LABEL     RECORD     IS          STANDARD                    
    57  000570     BLOCK     CONTAINS   0           RECORDS.                    
    58  000580*                                                                 
    59  000590 01  ͂Q|R[h.                                            
    60  000600     COPY  CPBIS062  REPLACING  ==()==  BY  ==͂Q|==.         
    61  000610*                                                                 
Pro*COBOL: Release 9.2.0.1.0 - Production on  Apr 8 17:03:24 2005

Copyright (c) 1982, 2002, Oracle Corporation.  All rights reserved.

    62  000620******************************************************************
    63  000630*  vnqjhmf|rsnq`fd  rdbshnm                *
    64  000640******************************************************************
    65  000650  WORKING-STORAGE                     SECTION.                    
    66  000660*----------------------------------------------------------------*
    67  000670*    zXgϐ`GA                                        *
    68  000680*----------------------------------------------------------------*
    69  000690     EXEC  SQL  BEGIN  DECLARE        SECTION  END-EXEC.          
    70  000700*                                                                 
    71  000710 01 vr|R[h                PIC X(08).                  
    72  000720 01 vr|ړIbc                    PIC X(01)  VALUE '2'.       
    73  000730 01 vr|_mn                    PIC X(09).                  
    74  000740 01 vr|xlR[h                PIC X(08).                  
    75  000750*                                                                 
    76  000760*--< nq`bkdʕϐ >                                       
    77  000770     EXEC  SQL  INCLUDE  SQLCOM.CBL            END-EXEC.          
    78  000780*--< `e[u >                                           
t@C: Z:\COB97\COPYLIB_DB\SQLCOM.CBLI[v
     1  000010*--rpkʕϐ
     2  000030   01  SQLSTATE                      PIC  X(005).
     3  000040   01  DB-STRING                     PIC  X(020).
     4  000050   01  USERNAME                      PIC  X(010).
     5  000060   01  PASSWD                        PIC  X(010).
     6  000070*
t@C: Z:\COB97\COPYLIB_DB\SQLCOM.CBLN[Y
    79  000790     EXEC  SQL  INCLUDE  D642UTG.CBL           END-EXEC.          
    80  000800*--< `WJe[u >                                       
t@C: Z:\COB97\COPYLIB_DB\D642UTG.CBLI[v
     1        *****************************************************************
     2        *   `(D642UTG_TBL)
     3        *****************************************************************
     4         01  `.
     5             03  cUSQ|\_ԍ
     6                                       PIC  X(010).
     7             03  cUSQ|        PIC S9(003) PACKED-DECIMAL.
     8             03  cUSQ|R[h
     9                                       PIC  X(009).
    10             03  cUSQ|_R[h
    11                                       PIC  X(005).
    12             03  cUSQ|_於  PIC  X(040).
    13             03  cUSQ|_於̃Ji
    14                                       PIC  X(040).
    15             03  cUSQ|XR[h  PIC  X(004).
    16             03  cUSQ|_敪  PIC  X(001).
    17             03  cUSQ|`    PIC  X(001).
    18             03  cUSQ|      PIC  X(008).
    19             03  cUSQ|`[s  PIC  X(008).
    20             03  cUSQ|`    PIC  X(001).
    21             03  cUSQ|  PIC  X(008).
    22             03  cUSQ|TCN
    23                                       PIC S9(002) PACKED-DECIMAL.
    24             03  cUSQ|vz  PIC S9(013) PACKED-DECIMAL.
    25             03  cUSQ|`    PIC S9(004) PACKED-DECIMAL.
    26             03  cUSQ|旧sR[h
    27                                       PIC  X(007).
    28             03  cUSQ|xsR[h
    29                                       PIC  X(007).
    30             03  cUSQ|_ԍP  PIC  X(010).
    31             03  cUSQ|_ԍQ  PIC  X(010).
    32             03  cUSQ|_ԍR  PIC  X(010).
    33             03  cUSQ|_ԍS  PIC  X(010).
    34             03  cUSQ|_ԍT  PIC  X(010).
Pro*COBOL: Release 9.2.0.1.0 - Production on  Apr 8 17:03:24 2005

Copyright (c) 1982, 2002, Oracle Corporation.  All rights reserved.

    35             03  cUSQ|_ԍU  PIC  X(010).
    36             03  cUSQ|_ԍV  PIC  X(010).
    37             03  cUSQ|_ԍW  PIC  X(010).
    38             03  cUSQ|_ԍX  PIC  X(010).
    39             03  cUSQ|_ԍPO
    40                                       PIC  X(010).
    41             03  cUSQ|l      PIC  X(040).
    42             03  cUSQ|`e
    43                                       PIC  X(001).
    44             03  cUSQ|o^N  PIC  X(008).
    45             03  cUSQ|o^    PIC  X(008).
    46             03  cUSQ|o^S  PIC  X(008).
    47             03  cUSQ|XVN  PIC  X(008).
    48             03  cUSQ|XV    PIC  X(008).
    49             03  cUSQ|XV      PIC  X(008).
    50             03  cUSQ|͒S҃R[h
    51                                       PIC  X(008).
    52             03  cUSQ|p敪
    53                                       PIC  X(001).
    54             03  cUSQ|UolR[h
    55                                       PIC  X(009).
    56             03  cUSQ|Uol_R[h
    57                                       PIC  X(005).
    58             03  cUSQ|Uol  PIC  X(040).
    59             03  cUSQ|Uol̃Ji
    60                                       PIC  X(040).
t@C: Z:\COB97\COPYLIB_DB\D642UTG.CBLN[Y
    81  000810     EXEC  SQL  INCLUDE  D645UTT.CBL           END-EXEC.          
    82  000820*--< ϊe[u >                                               
t@C: Z:\COB97\COPYLIB_DB\D645UTT.CBLI[v
     1        *****************************************************************
     2        *   `WJ(D645UTT_TBL)
     3        *****************************************************************
     4         01  `WJ.
     5             03  cUST|\_ԍ
     6                                       PIC  X(010).
     7             03  cUST|        PIC S9(003) PACKED-DECIMAL.
     8             03  cUST|A        PIC S9(003) PACKED-DECIMAL.
     9             03  cUST|`ԍ    PIC  X(010).
    10             03  cUST|        PIC  X(008).
    11             03  cUST|z        PIC S9(013) PACKED-DECIMAL.
    12             03  cUST|UolR[h
    13                                       PIC  X(009).
    14             03  cUST|Uol_R[h
    15                                       PIC  X(005).
    16             03  cUST|Uol  PIC  X(040).
    17             03  cUST|Uol̃Ji
    18                                       PIC  X(040).
    19             03  cUST|o^N  PIC  X(008).
    20             03  cUST|o^    PIC  X(008).
    21             03  cUST|o^S  PIC  X(008).
    22             03  cUST|XVN  PIC  X(008).
    23             03  cUST|XV    PIC  X(008).
    24             03  cUST|XV      PIC  X(008).
    25             03  cUST|͒S҃R[h
    26                                       PIC  X(008).
    27             03  cUST|`    PIC  X(001).
t@C: Z:\COB97\COPYLIB_DB\D645UTT.CBLN[Y
    83  000830     EXEC  SQL  INCLUDE  IKOTBL001.CBL         END-EXEC.          
    84  000840*--< _ޓϊe[u >                                     
t@C: Z:\COB97\COPYLIB_DB\IKOTBL001.CBLI[v
     1  000010************************************************
Pro*COBOL: Release 9.2.0.1.0 - Production on  Apr 8 17:03:24 2005

Copyright (c) 1982, 2002, Oracle Corporation.  All rights reserved.

     2  000020* ϊe[u(IKOTBL001)
     3  000030************************************************
     4  000040 01  hjnOOP|R[h PIC  X(008).
     5  000050 01  hjnOOP|ړIbc PIC  X(001).
     6  000060 01  hjnOOP|VR[h PIC  X(007).
     7  000070 01  hjnOOP|} PIC  X(003).
     8  000080 01  hjnOOP|^MR[h PIC  X(007).
     9  000090 01  hjnOOP|񂹃R[h PIC  X(008).
    10  000100 01  hjnOOP|[UR[h PIC  X(008).
    11  000110 01  hjnOOP|ʂbc PIC  X(001).
t@C: Z:\COB97\COPYLIB_DB\IKOTBL001.CBLN[Y
    85  000850     EXEC  SQL  INCLUDE  IKOTBL002.CBL         END-EXEC.          
    86  000860*--< nq`bkd rpks (SQLCA) >                        
t@C: Z:\COB97\COPYLIB_DB\IKOTBL002.CBLI[v
     1  000010************************************************
     2  000020* _ޓϊe[u(IKOTBL002)
     3  000030************************************************
     4  000040 01  hjnOOQ|_mn PIC  X(009).
     5  000050 01  hjnOOQ|ă[XR[h PIC S9(001) COMP-3.
     6  000060 01  hjnOOQ|菈R[h PIC S9(002) COMP-3.
     7  000070 01  hjnOOQ|菈R[h PIC S9(002) COMP-3.
     8  000080 01  hjnOOQ|ă[X PIC S9(002) COMP-3.
     9  000090 01  hjnOOQ|菈R[h PIC S9(002) COMP-3.
    10  000100 01  hjnOOQ|菈R[h PIC S9(002) COMP-3.
    11  000110 01  hjnOOQ|_ PIC  X(003).
    12  000120 01  hjnOOQ|_敪 PIC  X(001).
    13  000130 01  hjnOOQ|菇 PIC  X(001).
t@C: Z:\COB97\COPYLIB_DB\IKOTBL002.CBLN[Y
    87  000870     EXEC  SQL  INCLUDE  SQLCA.COB             END-EXEC.          
    88  000880*                                                                 
    89  000890     EXEC  SQL  END      DECLARE      SECTION  END-EXEC.          
    90  000900*----------------------------------------------------------------*
    91  000910*    vnqjGA                                              *
    92  000920*----------------------------------------------------------------*
    93  000930 01  vnqj|GA.                                            
    94  000940*--< Aԏ >                                                   
    95  000950     03  v|A                     PIC S9(03).                 
    96  000960*--<  >                                                   
    97  000970     03  v|͓                 PIC  X(07).                 
    98  000980     03  v|o͓                 PIC  X(08).                 
    99  000990*--< G[p >                                               
   100  001000     03  v|G[R[h             PIC S9(04).                 
   101  001010*--< t@C >                                               
   102  001020     03  v|ԃGA.                                          
   103  001030         05  v|                 PIC  X(02).                 
   104  001040*--< tOGA >                                               
   105  001050     03  v|tbOGA.                                      
   106  001060         05  v|I|tOP       PIC  X(01).                 
   107  001070         05  v|I|tOQ       PIC  X(01).                 
   108  001080         05  v|ُI|tO     PIC  X(01).                 
   109  001090*--< GA >                                                 
   110  001100     03  GA.                                              
   111  001110         05  v|́|P         PIC  9(09).                 
   112  001120         05  v|́|Q         PIC  9(09).                 
   113  001130         05  v|ó|P         PIC  9(09).                 
   114  001140         05  v|ó|Q         PIC  9(09).                 
   115  001150*--< L[GA >                                                 
   116  001160     03  jdx|GA.                                          
   117  001170        05  mdvL[.                                           
   118  001180            07 v|m|_mnP     PIC  X(09).                 
   119  001190            07 v|m|_mnQ     PIC  X(09).                 
   120  001200            07 v|m|           PIC  S9(2).                 
Pro*COBOL: Release 9.2.0.1.0 - Production on  Apr 8 17:03:24 2005

Copyright (c) 1982, 2002, Oracle Corporation.  All rights reserved.

   121  001210        05  nkcL[.                                           
   122  001220            07 v|n|_mnP     PIC  X(09).                 
   123  001230            07 v|n|           PIC  S9(2).                 
   124  001240*--< ʏ >                                                   
   125  001250 01  v|ʏ.                                                
   126  001260     03  v|VXet.                                        
   127  001270         05  v|I                 PIC  X(02) VALUE  "20".     
   128  001280         05  v|N               PIC  X(06).                 
   129  001290     03  v|VXe             PIC  X(08).                 
   130  001300     03  v|S                   PIC  X(08) VALUE "IKOPG   ".
   131  001310*                                                                 
   132  001320*----------------------------------------------------------------*
   133  001330*    Tu[`                                              *
   134  001340*----------------------------------------------------------------*
   135  001350 01  CALL-AREA.                                                   
   136  001360*--< ʃOTu[` >                                       
   137  001370     03  CLOCO001                     PIC  X(08) VALUE "CLOCO001".
   138  001380     03  COBCO001                     PIC  X(08) VALUE "COBCO001".
   139  001390*                                                                 
   140  001400*----------------------------------------------------------------*
   141  001410*    bnoẍ                                                *
   142  001420*----------------------------------------------------------------*
   143  001430*--< ʃOpp[^ >                                       
   144  001440 01  IF-CHOCO001.                                                 
   145  001450     COPY  CHOCO001  REPLACING  ==()==  BY  ==P|==.           
   146  001460*                                                                 
   147  001470*----------------------------------------------------------------*
   148  001480*    hmht@CǍTu[`pp^̈                *
   149  001490*----------------------------------------------------------------*
   150  001500 01  PARA-AREA.                                                   
   151  001510     COPY CPBCO001.                                               
   152  001520******************************************************************
   153  001530*    萔pf[^`GA                                      *
   154  001540******************************************************************
   155  001550 CONSTANT                             SECTION.                    
   156  001560 01  萔̈.                                                    
   157  001570     03  萔|vOhc         PIC  X(08) VALUE "COBIS630".
   158  001580     03  萔|vO           PIC  X(80)                  
   159  001590                                        VALUE  "`ڍs".
   160  001600     03  萔|rpknj             PIC  9(04)  VALUE  ZERO.    
   161  001610     03  萔|rpkkns           PIC S9(04)  VALUE -2112.    
   162  001620     03  萔|rpkdmc           PIC  9(04)  VALUE  0100.    
   163  001630     03  萔|               PIC S9(04)  VALUE  ZERO.    
   164  001640     03  萔|ُ               PIC S9(04)  VALUE  0009.    
   165  001650******************************************************************
   166  001660*    oqnbdctqd            chuhrhnm              *
   167  001670******************************************************************
   168  001680 PROCEDURE                            DIVISION.                   
   169  001690*                                                                 
   170  001700     PERFORM  .                                           
   171  001710*                                                                 
   172  001720     PERFORM   又     UNTIL  (v|I|tOP = "Y")       
   173  001730                          AND    (v|I|tOQ = "Y").      
   174  001740*                                                                 
   175  001750     PERFORM  I.                                           
   176  001760*                                                                 
   177  001770     STOP     RUN.                                                
   178  001780*                                                                 
   179  001790******************************************************************
   180  001800*                                                <1.0>   *
   181  001810******************************************************************
   182  001820                              SECTION.                    
Pro*COBOL: Release 9.2.0.1.0 - Production on  Apr 8 17:03:24 2005

Copyright (c) 1982, 2002, Oracle Corporation.  All rights reserved.

   183  001830 |rs`qs.                                            
   184  001840*                                                                 
   185  001850*----------------------------------------------------------------*
   186  001860*    JnbZ[Wo͏                              <1.1>   *
   187  001870*----------------------------------------------------------------*
   188  001880     INITIALIZE                       IF-CHOCO001.                
   189  001890     MOVE  "3"                        TO  P|Cxg.     
   190  001900     MOVE  萔|vOhc       TO  P|\[Xhc.       
   191  001910     MOVE  ZERO                       TO  P|AR[h.       
   192  001920     MOVE  "START"                    TO  P|.         
   193  001930     MOVE  萔|vO         TO  P|̑bZ[W. 
   194  001940     CALL  CLOCO001                USING  IF-CHOCO001.            
   195  001950*                                                                 
   196  001960*----------------------------------------------------------------*
   197  001970*    Ɨ̈̏l                                <1.2>   *
   198  001980*----------------------------------------------------------------*
   199  001990     MOVE  SPACE                      TO  vnqj|GA.       
   200  002000     INITIALIZE                           vnqj|GA.       
   201  002010*--< bott擾 >                                           
   202  002020     ACCEPT  v|N               FROM  DATE.                 
   203  002030*--< bot擾 >                                           
   204  002040     ACCEPT  v|VXe         FROM  TIME.                 
   205  002050*--< nq`bkdڑ  >                                          
   206  002060     PERFORM   nq`bkdڑ.                                  
   207  002070*--< t@CI[v >                                           
   208  002080     PERFORM  t@CI[v.                                   
   209  002090*--< ̓t@CP(`{t@C)Ǎ >                   
   210  002100     PERFORM  `{t@CǍ.                           
   211  002110*--< ̓t@CQ(`t@C)Ǎ >                   
   212  002120     PERFORM  `t@CǍ.                           
   213  002130*                                                                 
   214  002140 |dwhs.                                              
   215  002150     EXIT.                                                        
   216  002160******************************************************************
   217  002170*    nq`bkdڑ                                            *
   218  002180******************************************************************
   219  002190 nq`bkdڑ                     SECTION.                    
   220  002200 nq`bkdڑ|rs`qs.                                    
   221  002210*                                                                 
   222  002220*--< caڑp擾 >                                   
   223  002230     CALL  COBCO001                USING  PARA-AREA.              
   224  002240*                                                                 
   225  002250     MOVE  PARA-DBSTRING              TO  DB-STRING.              
   226  002260     MOVE  PARA-USERNAME              TO  USERNAME.               
   227  002270     MOVE  PARA-PASSWORD              TO  PASSWD.                 
   228  002280*                                                                 
   229  002290*----------------------------------------------------------------*
   230  002300*    Jnڑ                                                    *
   231  002310*----------------------------------------------------------------*
   232  002320     IF    DB-STRING  =  SPACE                                    
   233  002330        EXEC SQL                                                  
   234  002340           CONNECT  :USERNAME IDENTIFIED BY :PASSWD               
   235  002350        END-EXEC                                                  
   236  002360     ELSE                                                         
   237  002370        EXEC SQL                                                  
   238  002380           CONNECT  :USERNAME IDENTIFIED BY :PASSWD               
   239  002390             USING  :DB-STRING                                    
   240  002400        END-EXEC                                                  
   241  002410     END-IF.                                                      
   242  002420*                                                                 
   243  002430*----------------------------------------------------------------*
   244  002440*    ڑmF                                                    *
Pro*COBOL: Release 9.2.0.1.0 - Production on  Apr 8 17:03:24 2005

Copyright (c) 1982, 2002, Oracle Corporation.  All rights reserved.

   245  002450*----------------------------------------------------------------*
   246  002460     EVALUATE  SQLCODE                                            
   247  002470        WHEN   萔|rpknj                                   
   248  002480           CONTINUE                                               
   249  002490        WHEN   OTHER                                              
   250  002500*--<       ڑG[ >                                           
   251  002510           MOVE     -10               TO  v|G[R[h        
   252  002520           PERFORM  G[                                    
   253  002530     END-EVALUATE.                                                
   254  002540*                                                                 
   255  002550 nq`bkdڑ|dwhs.                                      
   256  002560     EXIT.                                                        
   257  002570******************************************************************
   258  002580*    t@CI[v                                            *
   259  002590******************************************************************
   260  002600 t@CI[v                     SECTION.                    
   261  002610 t@CI[v|rs`qs.                                    
   262  002620*----------------------------------------------------------------*
   263  002630*    ̓t@CPI[v                                      *
   264  002640*----------------------------------------------------------------*
   265  002650     OPEN  INPUT   ̓t@CP.                                
   266  002660*                                                                 
   267  002670*--< ̓t@CPI[v̏Ԕ >                           
   268  002680     EVALUATE  v|                                           
   269  002690        WHEN  ZERO                                                
   270  002700           CONTINUE                                               
   271  002710        WHEN  OTHER                                               
   272  002720*--<       ̓t@CPI[vG[ >                         
   273  002730           MOVE     -20               TO  v|G[R[h        
   274  002740           PERFORM  G[                                    
   275  002750     END-EVALUATE.                                                
   276  002760*                                                                 
   277  002770*----------------------------------------------------------------*
   278  002780*    ̓t@CQI[v                                      *
   279  002790*----------------------------------------------------------------*
   280  002800     OPEN  INPUT   ̓t@CQ.                                
   281  002810*                                                                 
   282  002820*--< ̓t@CQI[v̏Ԕ >                           
   283  002830     EVALUATE  v|                                           
   284  002840        WHEN  ZERO                                                
   285  002850           CONTINUE                                               
   286  002860        WHEN  OTHER                                               
   287  002870*--<       ̓t@CQI[vG[ >                         
   288  002880           MOVE     -30               TO  v|G[R[h        
   289  002890           PERFORM  G[                                    
   290  002900     END-EVALUATE.                                                
   291  002910 t@CI[v|dwhs.                                      
   292  002920     EXIT.                                                        
   293  002930******************************************************************
   294  002940*    `{t@CǍ                                    *
   295  002950******************************************************************
   296  002960 `{t@CǍ             SECTION.                    
   297  002970 `{t@CǍ|rs`qs.                            
   298  002980*                                                                 
   299  002990     READ  ̓t@CP                                         
   300  003000        AT END                                                    
   301  003010           MOVE  "Y"                  TO  v|I|tOP      
   302  003020           MOVE  HIGH-VALUE           TO  v|m|_mnP      
   303  003030           GO    TO   `{t@CǍ|dwhs          
   304  003040     END-READ.                                                    
   305  003050*                                                                 
   306  003060*--< t@CǍԔ >                                       
Pro*COBOL: Release 9.2.0.1.0 - Production on  Apr 8 17:03:24 2005

Copyright (c) 1982, 2002, Oracle Corporation.  All rights reserved.

   307  003070     EVALUATE  v|                                           
   308  003080        WHEN  ZERO                                                
   309  003090           MOVE  ͂P|_mn     TO  v|m|_mnP      
   310  003100           MOVE  ͂P|_mn     TO  vr|_mn          
   311  003110           MOVE  ͂P|R[h TO  vr|R[h      
   312  003120                                                                  
   313  003130*--<       `{t@C͌̃JEg >                   
   314  003140           COMPUTE  v|́|P = v|́|P + 1       
   315  003150        WHEN  OTHER                                               
   316  003160*--<       `{t@CǍG[ >                           
   317  003170           MOVE     -40               TO  v|G[R[h        
   318  003180           PERFORM  G[                                    
   319  003190     END-EVALUATE.                                                
   320  003200*                                                                 
   321  003210 `{t@CǍ|dwhs.                              
   322  003220     EXIT.                                                        
   323  003230******************************************************************
   324  003240*    `t@CǍ                                    *
   325  003250******************************************************************
   326  003260 `t@CǍ             SECTION.                    
   327  003270 `t@CǍ|rs`qs.                            
   328  003280*                                                                 
   329  003290     READ  ̓t@CQ                                         
   330  003300        AT END                                                    
   331  003310           MOVE  "Y"                  TO  v|I|tOQ      
   332  003320           MOVE  HIGH-VALUE           TO  v|m|_mnQ      
   333  003330           GO    TO   `t@CǍ|dwhs          
   334  003340     END-READ.                                                    
   335  003350*                                                                 
   336  003360*--< t@CǍԔ >                                       
   337  003370     EVALUATE  v|                                           
   338  003380        WHEN  ZERO                                                
   339  003390           MOVE  ͂Q|_mn     TO  v|m|_mnQ      
   340  003400           MOVE  ͂Q|         TO  v|m|            
   341  003410           MOVE  ͂Q|xlR[h TO  vr|xlR[h      
   342  003420*--<       `t@C͌̉Z >                       
   343  003430           COMPUTE  v|́|Q = v|́|Q + 1       
   344  003440        WHEN  OTHER                                               
   345  003450*--<       `t@CǍG[ >                           
   346  003460           MOVE     -50               TO  v|G[R[h        
   347  003470           PERFORM  G[                                    
   348  003480     END-EVALUATE.                                                
   349  003490*                                                                 
   350  003500 `t@CǍ|dwhs.                              
   351  003510     EXIT.                                                        
   352  003520******************************************************************
   353  003530*    又                                                      *
   354  003540******************************************************************
   355  003550 又                               SECTION.                    
   356  003560 又|rs`qs.                                              
   357  003570*                                                                 
   358  003580     EVALUATE  TRUE                                               
   359  003590*--<    `{t@Ĉ݂̏ꍇ >                              
   360  003600        WHEN  v|m|_mnP > v|m|_mnQ             
   361  003610           PERFORM  `t@CǍ                      
   362  003620*                                                                 
   363  003630*--<    }b`Ȍꍇ >                                        
   364  003640        WHEN  v|m|_mnP = v|m|_mnQ             
   365  003650           PERFORM  }b`OҏWo͏                        
   366  003660*                                                                 
   367  003670           PERFORM  `t@CǍ                      
   368  003680*                                                                 
Pro*COBOL: Release 9.2.0.1.0 - Production on  Apr 8 17:03:24 2005

Copyright (c) 1982, 2002, Oracle Corporation.  All rights reserved.

   369  003690*--<    `t@Ĉ݂̏ꍇ >                              
   370  003700        WHEN  v|m|_mnP < v|m|_mnQ             
   371  003710           IF v|m|_mnP NOT = v|n|_mnP         
   372  003720              DISPLAY "***** COBIS630:`t@CȂ ",     
   373  003730                      "_mn=" , v|m|_mnP            
   374  003740           END-IF                                                 
   375  003750           PERFORM  `{t@CǍ                      
   376  003760*                                                                 
   377  003770     END-EVALUATE.                                                
   378  003780*                                                                 
   379  003790 又|dwhs.                                                
   380  003800     EXIT.                                                        
   381  003810******************************************************************
   382  003820*    }b`OҏWo͏                                      *
   383  003830******************************************************************
   384  003840 }b`OҏWo͏               SECTION.                    
   385  003850 }b`OҏWo͏|rs`qs.                              
   386  003860     PERFORM `e[uҏW.                                
   387  003870*                                                                 
   388  003880     PERFORM `WJe[uҏW.                            
   389  003890*                                                                 
   390  003900     IF     v|m|_mnP = v|n|_mnP               
   391  003910        AND v|m|       = v|n|                     
   392  003920           PERFORM `WJe[uo                       
   393  003930     ELSE                                                         
   394  003940           PERFORM `e[uo                           
   395  003950           PERFORM `WJe[uo                       
   396  003960     END-IF.                                                      
   397  003970*                                                                 
   398  003980     MOVE v|m|_mnP          TO  v|n|_mnP.     
   399  003990     MOVE v|m|                TO  v|n|.           
   400  004000*                                                                 
   401  004010 }b`OҏWo͏|dwhs.                                
   402  004020******************************************************************
   403  004030*     `e[uҏW                                       *
   404  004040******************************************************************
   405  004050 `e[uҏW                 SECTION.                    
   406  004060 `e[uҏW|rs`qs.                                
   407  004070*----------------------------------------------------------------*
   408  004080*                                                      *
   409  004090*----------------------------------------------------------------*
   410  004100        MOVE  SPACE                   TO  `.               
   411  004110        INITIALIZE                        `.               
   412  004120*----------------------------------------------------------------*
   413  004130*       ڕҏW                                             *
   414  004140*----------------------------------------------------------------*
   415  004150*--<    No.01 >                                                   
   416  004160        MOVE  ͂P|_mn        TO  cUSQ|\_ԍ. 
   417  004170*--<    No.02 >                                                   
   418  004180        MOVE  ͂Q|            TO  cUSQ|.         
   419  004190*--<    No.03 AND No.04 >                                         
   420  004200        PERFORM R[hƌ_R[hڒo.               
   421  004210        MOVE  hjnOOP|VR[h                        
   422  004220                                      TO  cUSQ|R[h. 
   423  004230        MOVE  hjnOOP|}      TO  cUSQ|_R[h. 
   424  004240*--<    No.05 >                                                   
   425  004250        MOVE  ͂P|̊        TO  cUSQ|_於.   
   426  004260*--<    No.06 >                                                   
   427  004270        MOVE  ͂P|̃Ji        TO cUSQ|_於̃Ji.
   428  004280*--<    No.07 >                                                   
   429  004290        MOVE  ͂P|ƏR[h    TO  cUSQ|XR[h.   
   430  004300*--<    No.08 >                                                   
Pro*COBOL: Release 9.2.0.1.0 - Production on  Apr 8 17:03:24 2005

Copyright (c) 1982, 2002, Oracle Corporation.  All rights reserved.

   431  004310        PERFORM _敪ڒo.                               
   432  004320        MOVE hjnOOQ|_敪 TO  cUSQ|_敪.   
   433  004330*--<    No.09 >                                                   
   434  004340        MOVE  ZERO                    TO  cUSQ|`.     
   435  004350*--<    No.10 >                                                   
   436  004360        MOVE  ͂Q|          TO  v|͓.           
   437  004370        PERFORM .                                         
   438  004380        MOVE  v|o͓            TO  cUSQ|.       
   439  004390*--<    No.11 >                                                   
   440  004400        MOVE  ͂Q|`[s      TO  v|͓.           
   441  004410        PERFORM .                                         
   442  004420        MOVE  v|o͓            TO  cUSQ|`[s.   
   443  004430*--<    No.12 >                                                   
   444  004440        MOVE  ͂Q|`        TO  cUSQ|`.     
   445  004450*--<    No.13 >                                                   
   446  004460        MOVE  ͂Q|      TO  v|͓.           
   447  004470        PERFORM .                                         
   448  004480        MOVE  v|o͓            TO  cUSQ|.   
   449  004490*--<    No.14 >                                                   
   450  004500        MOVE  ͂Q|TCN    TO  cUSQ|TCN. 
   451  004510*--<    No.15 >                                                   
   452  004520        MOVE  ͂Q|vz      TO  cUSQ|vz.   
   453  004530*--<    No.16 >                                                   
   454  004540        MOVE  ͂Q|`        TO  cUSQ|`.     
   455  004550*--<    No.17 >                                                   
   456  004560        MOVE  ͂Q|旧˗sR[h                          
   457  004570                                     TO cUSQ|旧sR[h. 
   458  004580*--<    No.18 >                                                   
   459  004590        MOVE  ͂Q|xsR[h TO cUSQ|xsR[h. 
   460  004600*--<    No.19 >                                                   
   461  004610        MOVE  ͂P|_mnP      TO  cUSQ|_ԍP.   
   462  004620*--<    No.20 >                                                   
   463  004630        MOVE  ͂P|_mnQ      TO  cUSQ|_ԍQ.   
   464  004640*--<    No.21 >                                                   
   465  004650        MOVE  ͂P|_mnR      TO  cUSQ|_ԍR.   
   466  004660*--<    No.22 >                                                   
   467  004670        MOVE  ͂P|_mnS      TO  cUSQ|_ԍS.   
   468  004680*--<    No.23 >                                                   
   469  004690        MOVE  ͂P|_mnT      TO  cUSQ|_ԍT.   
   470  004700*--<    No.24 >                                                   
   471  004710        MOVE  ͂P|_mnU      TO  cUSQ|_ԍU.   
   472  004720*--<    No.25 >                                                   
   473  004730        MOVE  ͂P|_mnV      TO  cUSQ|_ԍV.   
   474  004740*--<    No.26 >                                                   
   475  004750        MOVE  ͂P|_mnW      TO  cUSQ|_ԍW.   
   476  004760*--<    No.27 >                                                   
   477  004770        MOVE  ͂P|_mnX      TO  cUSQ|_ԍX.   
   478  004780*--<    No.28>                                                    
   479  004790        MOVE  ͂P|_mnPO    TO  cUSQ|_ԍPO. 
   480  004800*--<    No.29 >                                                   
   481  004810        MOVE  ͂Q|l          TO  cUSQ|l.       
   482  004820*--<    No.30>                                                    
   483  004830        MOVE  ZERO                    TO  cUSQ|`e. 
   484  004840*--<    No.31 >                                                   
   485  004850        MOVE  v|VXet        TO  cUSQ|o^N.   
   486  004860*--<    No.32 >                                                   
   487  004870        MOVE  v|VXe        TO  cUSQ|o^.     
   488  004880*--<    No.33 >                                                   
   489  004890        MOVE  v|S              TO  cUSQ|o^S.   
   490  004900*--<    No.34 >                                                   
   491  004910        MOVE  v|VXet        TO  cUSQ|XVN.   
   492  004920*--<    No.35 >                                                   
Pro*COBOL: Release 9.2.0.1.0 - Production on  Apr 8 17:03:24 2005

Copyright (c) 1982, 2002, Oracle Corporation.  All rights reserved.

   493  004930        MOVE  v|VXe        TO  cUSQ|XV.     
   494  004940*--<    No.36 >                                                   
   495  004950        MOVE  v|S              TO  cUSQ|XV.       
   496  004960*--<    No.37 >                                                   
   497  004970        MOVE  v|S          TO  cUSQ|͒S҃R[h. 
   498  004980*--<    No.38 >                                                   
   499  004990        MOVE  ZERO                    TO  cUSQ|p敪. 
   500  005000*--<    No.39 AND No.40 >                                         
   501  005010        PERFORM UolR[hƌ_R[hڒo.         
   502  005020        MOVE  hjnOOP|VR[h                        
   503  005030                                  TO cUSQ|UolR[h.
   504  005040        MOVE  hjnOOP|}  TO cUSQ|Uol_R[h.
   505  005050*--<    No.41>                                                    
   506  005060        MOVE  ͂Q|̊        TO  cUSQ|Uol.   
   507  005070*--<    No.42 >                                                   
   508  005080        MOVE  ͂Q|̃Ji        TO cUSQ|Uol̃Ji.
   509  005090*                                                                 
   510  005100 `e[uҏW|dwhs.                                  
   511  005110******************************************************************
   512  005120*     R[hƌ_R[hڒo                         *
   513  005130******************************************************************
   514  005140 R[hƌ_R[hڒo   SECTION.                    
   515  005150 R[hƌ_R[hڒo|rs`qs.                  
   516  005160     EXEC SQL                                                     
   517  005170        SELECT  VR[h                                    
   518  005180               ,}                                              
   519  005190          INTO :hjnOOP|VR[h ,                    
   520  005200               :hjnOOP|}                                
   521  005210          FROM  IKOTBL001                                         
   522  005220         WHERE  R[h = :vr|R[h                
   523  005230           AND  ړIbc     = :vr|ړIbc                    
   524  005240     END-EXEC.                                                    
   525  005250*----------------------------------------------------------------*
   526  005260*    R[hƌ_R[hڒomF                      *
   527  005270*----------------------------------------------------------------*
   528  005280     EVALUATE   SQLCODE                                           
   529  005290        WHEN   萔|rpknj                                   
   530  005300*--<        >                                                 
   531  005310           CONTINUE                                               
   532  005320        WHEN   OTHER                                              
   533  005330*--<       R[hƌ_R[hڒos>                
   534  005340           MOVE      SPACE         TO hjnOOP|VR[h
   535  005350           MOVE      SPACE         TO hjnOOP|}          
   536  005360           MOVE      -60           TO  v|G[R[h           
   537  005370           PERFORM   G[                                   
   538  005380     END-EVALUATE.                                                
   539  005390*                                                                 
   540  005400 R[hƌ_R[hڒo|dwhs.                    
   541  005410******************************************************************
   542  005420*     _敪ڒo                                         *
   543  005430******************************************************************
   544  005440 _敪ڒo                   SECTION.                    
   545  005450 _敪ڒo|rs`qs.                                  
   546  005460     EXEC SQL                                                     
   547  005470        SELECT  _敪                                        
   548  005480          INTO :hjnOOQ|_敪                          
   549  005490          FROM  IKOTBL002                                         
   550  005500         WHERE  _mn = :vr|_mn                        
   551  005510     END-EXEC.                                                    
   552  005520*----------------------------------------------------------------*
   553  005530*    _敪ڒomF                                      *
   554  005540*----------------------------------------------------------------*
Pro*COBOL: Release 9.2.0.1.0 - Production on  Apr 8 17:03:24 2005

Copyright (c) 1982, 2002, Oracle Corporation.  All rights reserved.

   555  005550     EVALUATE   SQLCODE                                           
   556  005560        WHEN   萔|rpknj                                   
   557  005570*--<        >                                                 
   558  005580           CONTINUE                                               
   559  005590        WHEN   萔|rpkkns                                 
   560  005600*--<        >                                                 
   561  005610           CONTINUE                                               
   562  005620        WHEN   OTHER                                              
   563  005630*--<       _敪ڒos>                                
   564  005640           MOVE      SPACE            TO hjnOOQ|_敪 
   565  005650           MOVE      -70              TO  v|G[R[h        
   566  005660           PERFORM   G[                                   
   567  005670     END-EVALUATE.                                                
   568  005680*                                                                 
   569  005690 _敪ڒo|dwhs.                                    
   570  005700******************************************************************
   571  005710*                                                        *
   572  005720******************************************************************
   573  005730                              SECTION.                    
   574  005740 |rs`qs.                                            
   575  005750*                                                                 
   576  005760     EVALUATE v|͓                                        
   577  005770        WHEN  ZERO                                                
   578  005780           MOVE   ZERO                TO v|o͓             
   579  005790        WHEN  OTHER                                               
   580  005800           EVALUATE  v|͓(1:1)                            
   581  005810              WHEN  "1"                                           
   582  005820                 MOVE "20"            TO v|o͓(1:2)        
   583  005830              WHEN  "0"                                           
   584  005840                 MOVE "19"            TO v|o͓(1:2)        
   585  005850           END-EVALUATE                                           
   586  005860           MOVE v|͓(2:6)     TO v|o͓(3:6)        
   587  005870     END-EVALUATE.                                                
   588  005880*                                                                 
   589  005890 |dwhs.                                              
   590  005900******************************************************************
   591  005910*     UolR[hƌ_R[hڒo                   *
   592  005920******************************************************************
   593  005930 UolR[hƌ_R[hڒo  SECTION.               
   594  005940 UolR[hƌ_R[hڒo|rs`qs.            
   595  005950     EXEC SQL                                                     
   596  005960        SELECT  VR[h                                    
   597  005970               ,}                                              
   598  005980          INTO :hjnOOP|VR[h ,                    
   599  005990               :hjnOOP|}                                
   600  006000          FROM  IKOTBL001                                         
   601  006010         WHERE  R[h = :vr|xlR[h                
   602  006020           AND  ړIbc     = :vr|ړIbc                    
   603  006030     END-EXEC.                                                    
   604  006040*----------------------------------------------------------------*
   605  006050*    UolR[hƌ_R[hڒomF                *
   606  006060*----------------------------------------------------------------*
   607  006070     EVALUATE   SQLCODE                                           
   608  006080        WHEN   萔|rpknj                                   
   609  006090*--<        >                                                 
   610  006100           CONTINUE                                               
   611  006110        WHEN   OTHER                                              
   612  006120*--<       UolR[hƌ_R[hڒos>          
   613  006130           MOVE      SPACE         TO hjnOOP|VR[h
   614  006140           MOVE      SPACE         TO hjnOOP|}          
   615  006150           MOVE      -80           TO  v|G[R[h           
   616  006160           PERFORM   G[                                   
Pro*COBOL: Release 9.2.0.1.0 - Production on  Apr 8 17:03:24 2005

Copyright (c) 1982, 2002, Oracle Corporation.  All rights reserved.

   617  006170     END-EVALUATE.                                                
   618  006180*                                                                 
   619  006190 UolR[hƌ_R[hڒo|dwhs.              
   620  006200******************************************************************
   621  006210*     `WJe[uҏW                                   *
   622  006220******************************************************************
   623  006230 `WJe[uҏW             SECTION.                    
   624  006240 `WJe[uҏW|rs`qs.                            
   625  006250*----------------------------------------------------------------*
   626  006260*                                                      *
   627  006270*----------------------------------------------------------------*
   628  006280        MOVE  SPACE                   TO  `WJ.           
   629  006290        INITIALIZE                        `WJ.           
   630  006300*----------------------------------------------------------------*
   631  006310*       ڕҏW                                             *
   632  006320*----------------------------------------------------------------*
   633  006330*--<    No.01 >                                                   
   634  006340        MOVE  ͂P|_mn        TO  cUST|\_ԍ. 
   635  006350*--<    No.02 >                                                   
   636  006360        MOVE  ͂Q|            TO  cUST|.         
   637  006370*--<    No.03 >                                                   
   638  006380        IF     v|m|_mnP = v|n|_mnP            
   639  006390           AND v|m|       = v|n|                  
   640  006400              COMPUTE  v|A  =  v|A  +  1                
   641  006410        ELSE                                                      
   642  006420              MOVE  1                 TO  v|A                
   643  006430        END-IF.                                                   
   644  006440        MOVE  v|A                TO  cUST|A          
   645  006450*--<    No.04 >                                                   
   646  006460        MOVE  ͂Q|`mn        TO  cUST|`ԍ.     
   647  006470*--<    No.05 >                                                   
   648  006480        MOVE  ͂Q|            TO  v|͓.           
   649  006490        PERFORM .                                         
   650  006500        MOVE  v|o͓            TO  cUST|.         
   651  006510*--<    No.06 >                                                   
   652  006520        MOVE  ͂Q|z            TO  cUST|z.         
   653  006530*--<    No.07 >                                                   
   654  006540        MOVE  hjnOOP|VR[h                        
   655  006550                                  TO cUST|UolR[h.
   656  006560*--<    No.08 >                                                   
   657  006570        MOVE  hjnOOP|}  TO cUST|Uol_R[h.
   658  006580*--<    No.09 >                                                   
   659  006590        MOVE  ͂Q|̊        TO  cUST|Uol.   
   660  006600*--<    No.10 >                                                   
   661  006610        MOVE  ͂Q|̃Ji       TO  cUST|Uol̃Ji.
   662  006620*--<    No.31 >                                                   
   663  006630        MOVE  v|VXet        TO  cUST|o^N.   
   664  006640*--<    No.32 >                                                   
   665  006650        MOVE  v|VXe        TO  cUST|o^.     
   666  006660*--<    No.33 >                                                   
   667  006670        MOVE  v|S              TO  cUST|o^S.   
   668  006680*--<    No.34 >                                                   
   669  006690        MOVE  v|VXet        TO  cUST|XVN.   
   670  006700*--<    No.35 >                                                   
   671  006710        MOVE  v|VXe        TO  cUST|XV.     
   672  006720*--<    No.36 >                                                   
   673  006730        MOVE  v|S              TO  cUST|XV.       
   674  006740*--<    No.37 >                                                   
   675  006750        MOVE  v|S          TO  cUST|͒S҃R[h. 
   676  006760*--<    No.37 >                                                   
   677  006770        MOVE  ͂Q|`敪        TO  cUST|`.     
   678  006780*                                                                 
Pro*COBOL: Release 9.2.0.1.0 - Production on  Apr 8 17:03:24 2005

Copyright (c) 1982, 2002, Oracle Corporation.  All rights reserved.

   679  006790 `WJe[uҏW|dwhs.                              
   680  006800******************************************************************
   681  006810*    `e[uo                                        *
   682  006820******************************************************************
   683  006830 `e[uo                 SECTION.                    
   684  006840 `e[uó|rs`qs.                                
   685  006850*                                                                 
   686  006860       EXEC  SQL                                                  
   687  006870        INSERT  INTO  D642UTG_TBL                                 
   688  006880           ( \_ԍ                                         
   689  006890            ,                                                 
   690  006900            ,R[h                                         
   691  006910            ,_R[h                                         
   692  006920            ,_於                                           
   693  006930            ,_於̃Ji                                       
   694  006940            ,XR[h                                           
   695  006950            ,_敪                                           
   696  006960            ,`                                             
   697  006970            ,                                               
   698  006980            ,`[s                                           
   699  006990            ,`                                             
   700  007000            ,                                           
   701  007010            ,TCN                                         
   702  007020            ,vz                                           
   703  007030            ,`                                             
   704  007040            ,旧sR[h                                       
   705  007050            ,xsR[h                                       
   706  007060            ,_ԍP                                           
   707  007070            ,_ԍQ                                           
   708  007080            ,_ԍR                                           
   709  007090            ,_ԍS                                           
   710  007100            ,_ԍT                                           
   711  007110            ,_ԍU                                           
   712  007120            ,_ԍV                                           
   713  007130            ,_ԍW                                           
   714  007140            ,_ԍX                                           
   715  007150            ,_ԍPO                                         
   716  007160            ,l                                               
   717  007170            ,`e                                         
   718  007180            ,o^N                                           
   719  007190            ,o^                                             
   720  007200            ,o^S                                           
   721  007210            ,XVN                                           
   722  007220            ,XV                                             
   723  007230            ,XV                                               
   724  007240            ,͒S҃R[h                                     
   725  007250            ,p敪                                         
   726  007260            ,UolR[h                                   
   727  007270            ,Uol_R[h                                   
   728  007280            ,Uol                                           
   729  007290            ,Uol̃Ji )                                     
   730  007300      VALUES                                                      
   731  007310           ( :cUSQ|\_ԍ                              
   732  007320            ,:cUSQ|                                      
   733  007330            ,:cUSQ|R[h                              
   734  007340            ,:cUSQ|_R[h                              
   735  007350            ,:cUSQ|_於                                
   736  007360            ,:cUSQ|_於̃Ji                            
   737  007370            ,:cUSQ|XR[h                                
   738  007380            ,:cUSQ|_敪                                
   739  007390            ,:cUSQ|`                                  
   740  007400            ,:cUSQ|                                    
Pro*COBOL: Release 9.2.0.1.0 - Production on  Apr 8 17:03:24 2005

Copyright (c) 1982, 2002, Oracle Corporation.  All rights reserved.

   741  007410            ,:cUSQ|`[s                                
   742  007420            ,:cUSQ|`                                  
   743  007430            ,:cUSQ|                                
   744  007440            ,:cUSQ|TCN                              
   745  007450            ,:cUSQ|vz                                
   746  007460            ,:cUSQ|`                                  
   747  007470            ,:cUSQ|旧sR[h                            
   748  007480            ,:cUSQ|xsR[h                            
   749  007490            ,:cUSQ|_ԍP                                
   750  007500            ,:cUSQ|_ԍQ                                
   751  007510            ,:cUSQ|_ԍR                                
   752  007520            ,:cUSQ|_ԍS                                
   753  007530            ,:cUSQ|_ԍT                                
   754  007540            ,:cUSQ|_ԍU                                
   755  007550            ,:cUSQ|_ԍV                                
   756  007560            ,:cUSQ|_ԍW                                
   757  007570            ,:cUSQ|_ԍX                                
   758  007580            ,:cUSQ|_ԍPO                              
   759  007590            ,:cUSQ|l                                    
   760  007600            ,:cUSQ|`e                              
   761  007610            ,:cUSQ|o^N                                
   762  007620            ,:cUSQ|o^                                  
   763  007630            ,:cUSQ|o^S                                
   764  007640            ,:cUSQ|XVN                                
   765  007650            ,:cUSQ|XV                                  
   766  007660            ,:cUSQ|XV                                    
   767  007670            ,:cUSQ|͒S҃R[h                          
   768  007680            ,:cUSQ|p敪                              
   769  007690            ,:cUSQ|UolR[h                        
   770  007700            ,:cUSQ|Uol_R[h                        
   771  007710            ,:cUSQ|Uol                                
   772  007720            ,:cUSQ|Uol̃Ji )                          
   773  007730     END-EXEC.                                                    
   774  007740*                                                                 
   775  007750*----------------------------------------------------------------*
   776  007760*    `e[uo(ǉ)mF                        *
   777  007770*----------------------------------------------------------------*
   778  007780     EVALUATE  SQLCODE                                            
   779  007790        WHEN   萔|rpknj                                   
   780  007800*--<       ǉ >                                             
   781  007810           COMPUTE  v|ó|P  =  v|ó|P  +  1   
   782  007820        WHEN   OTHER                                              
   783  007830*--<       ǉG[ >                                       
   784  007840           MOVE     -90               TO  v|G[R[h        
   785  007850           PERFORM  G[                                    
   786  007860     END-EVALUATE.                                                
   787  007870*                                                                 
   788  007880 `e[uó|dwhs.                                  
   789  007890     EXIT.                                                        
   790  007900******************************************************************
   791  007910*    `WJe[uo                                    *
   792  007920******************************************************************
   793  007930 `WJe[uo             SECTION.                    
   794  007940 `WJe[uó|rs`qs.                            
   795  007950*                                                                 
   796  007960     EXEC  SQL                                                    
   797  007970        INSERT  INTO  D645UTT_TBL                                 
   798  007980           ( \_ԍ                                         
   799  007990            ,                                                 
   800  008000            ,A                                                 
   801  008010            ,`ԍ                                             
   802  008020            ,                                                 
Pro*COBOL: Release 9.2.0.1.0 - Production on  Apr 8 17:03:24 2005

Copyright (c) 1982, 2002, Oracle Corporation.  All rights reserved.

   803  008030            ,z                                                 
   804  008040            ,UolR[h                                   
   805  008050            ,Uol_R[h                                   
   806  008060            ,Uol                                           
   807  008070            ,Uol̃Ji                                       
   808  008080            ,o^N                                           
   809  008090            ,o^                                             
   810  008100            ,o^S                                           
   811  008110            ,XVN                                           
   812  008120            ,XV                                             
   813  008130            ,XV                                               
   814  008140            ,͒S҃R[h                                     
   815  008150            ,` )                                           
   816  008160        VALUES                                                    
   817  008170           ( :cUST|\_ԍ                              
   818  008180            ,:cUST|                                      
   819  008190            ,:cUST|A                                      
   820  008200            ,:cUST|`ԍ                                  
   821  008210            ,:cUST|                                      
   822  008220            ,:cUST|z                                      
   823  008230            ,:cUST|UolR[h                        
   824  008240            ,:cUST|Uol_R[h                        
   825  008250            ,:cUST|Uol                                
   826  008260            ,:cUST|Uol̃Ji                            
   827  008270            ,:cUST|o^N                                
   828  008280            ,:cUST|o^                                  
   829  008290            ,:cUST|o^S                                
   830  008300            ,:cUST|XVN                                
   831  008310            ,:cUST|XV                                  
   832  008320            ,:cUST|XV                                    
   833  008330            ,:cUST|͒S҃R[h                          
   834  008340            ,:cUST|` )                                
   835  008350     END-EXEC.                                                    
   836  008360*                                                                 
   837  008370*----------------------------------------------------------------*
   838  008380*    `WJe[uo(ǉ)mF                    *
   839  008390*----------------------------------------------------------------*
   840  008400     EVALUATE  SQLCODE                                            
   841  008410        WHEN   萔|rpknj                                   
   842  008420*--<       ǉ >                                             
   843  008430           COMPUTE  v|ó|Q =  v|ó|Q +  1     
   844  008440        WHEN   OTHER                                              
   845  008450*--<       ǉG[ >                                       
   846  008460           MOVE     -100              TO  v|G[R[h        
   847  008470           PERFORM  G[                                    
   848  008480     END-EVALUATE.                                                
   849  008490*                                                                 
   850  008500 `WJe[uó|dwhs.                              
   851  008510     EXIT.                                                        
   852  008520******************************************************************
   853  008530*    I                                                    *
   854  008540******************************************************************
   855  008550 I                             SECTION.                    
   856  008560 I|rs`qs.                                            
   857  008570*                                                                 
   858  008580     PERFORM  t@CN[Y.                               
   859  008590*                                                                 
   860  008600     PERFORM  caR~bg.                                   
   861  008610*                                                                 
   862  008620     PERFORM  bZ[Wo͏                              
   863  008630*                                                                 
   864  008640     PERFORM  IbZ[Wo                                  
Pro*COBOL: Release 9.2.0.1.0 - Production on  Apr 8 17:03:24 2005

Copyright (c) 1982, 2002, Oracle Corporation.  All rights reserved.

   865  008650*                                                                 
   866  008660*--< vOI >                                         
   867  008670     MOVE  萔|             TO  PROGRAM-STATUS.         
   868  008680*                                                                 
   869  008690 I|dwhs.                                              
   870  008700     EXIT.                                                        
   871  008710******************************************************************
   872  008720*    t@CN[Y                                        *
   873  008730******************************************************************
   874  008740 t@CN[Y                 SECTION.                    
   875  008750 t@CN[Y|rs`qs.                                
   876  008760*                                                                 
   877  008770     CLOSE  ̓t@CP.                                       
   878  008780     CLOSE  ̓t@CQ.                                       
   879  008790*                                                                 
   880  008800 t@CN[Y|dwhs.                                  
   881  008810     EXIT.                                                        
   882  008820******************************************************************
   883  008830*    bZ[Wo͏                                      *
   884  008840******************************************************************
   885  008850 bZ[Wo͏               SECTION.                    
   886  008860 bZ[Wo͏|rs`qs.                              
   887  008870*                                                                 
   888  008880*----------------------------------------------------------------*
   889  008890*    bZ[Wo͏                                      *
   890  008900*----------------------------------------------------------------*
   891  008910     INITIALIZE                       IF-CHOCO001.                
   892  008920     MOVE  "3"                        TO  P|Cxg.     
   893  008930     MOVE  萔|vOhc       TO  P|\[Xhc.       
   894  008940     MOVE  "0"                        TO  P|AR[h.       
   895  008950     MOVE  "FFUIS630"                 TO  P|e[uhc. 
   896  008960     MOVE  "COUNT"                    TO  P|.         
   897  008970     MOVE  v|́|P           TO  P|f[^e.       
   898  008980     MOVE  "`{Ǎ"         TO  P|̑bZ[W. 
   899  008990     CALL  CLOCO001                USING  IF-CHOCO001.            
   900  009000*                                                                 
   901  009010     INITIALIZE                       IF-CHOCO001.                
   902  009020     MOVE  "3"                        TO  P|Cxg.     
   903  009030     MOVE  萔|vOhc       TO  P|\[Xhc.       
   904  009040     MOVE  "0"                        TO  P|AR[h.       
   905  009050     MOVE  "FFUIS631"                 TO  P|e[uhc. 
   906  009060     MOVE  "COUNT"                    TO  P|.         
   907  009070     MOVE  v|́|Q           TO  P|f[^e.       
   908  009080     MOVE  "`Ǎ"         TO  P|̑bZ[W. 
   909  009090     CALL  CLOCO001                USING  IF-CHOCO001.            
   910  009100*                                                                 
   911  009110     INITIALIZE                       IF-CHOCO001.                
   912  009120     MOVE  "3"                        TO  P|Cxg.     
   913  009130     MOVE  萔|vOhc       TO  P|\[Xhc.       
   914  009140     MOVE  "0"                        TO  P|AR[h.       
   915  009150     MOVE  "D642UTG"                  TO  P|e[uhc. 
   916  009160     MOVE  "COUNT"                    TO  P|.         
   917  009170     MOVE  v|ó|P           TO  P|f[^e.       
   918  009180     MOVE  "`o͌"         TO  P|̑bZ[W. 
   919  009190     CALL  CLOCO001                USING  IF-CHOCO001.            
   920  009200*                                                                 
   921  009210     INITIALIZE                       IF-CHOCO001.                
   922  009220     MOVE  "3"                        TO  P|Cxg.     
   923  009230     MOVE  萔|vOhc       TO  P|\[Xhc.       
   924  009240     MOVE  "0"                        TO  P|AR[h.       
   925  009250     MOVE  "D645UTT"                  TO  P|e[uhc. 
   926  009260     MOVE  "COUNT"                    TO  P|.         
Pro*COBOL: Release 9.2.0.1.0 - Production on  Apr 8 17:03:24 2005

Copyright (c) 1982, 2002, Oracle Corporation.  All rights reserved.

   927  009270     MOVE  v|ó|Q           TO  P|f[^e.       
   928  009280     MOVE  "`WJo͌"     TO  P|̑bZ[W. 
   929  009290     CALL  CLOCO001                USING  IF-CHOCO001.            
   930  009300*                                                                 
   931  009310 bZ[Wo͏|dwhs.                                
   932  009320     EXIT.                                                        
   933  009330******************************************************************
   934  009340*    IbZ[Wo                                          *
   935  009350******************************************************************
   936  009360 IbZ[Wo                   SECTION.                    
   937  009370 IbZ[Wó|rs`qs.                                  
   938  009380*                                                                 
   939  009390*----------------------------------------------------------------*
   940  009400*    IbZ[Wo                                          *
   941  009410*----------------------------------------------------------------*
   942  009420     INITIALIZE                       IF-CHOCO001.                
   943  009430     MOVE  "3"                        TO  P|Cxg.     
   944  009440     MOVE  萔|vOhc       TO  P|\[Xhc.       
   945  009450     MOVE  "0"                        TO  P|AR[h.       
   946  009460     MOVE  "END"                      TO  P|.         
   947  009470     MOVE  萔|vO         TO  P|̑bZ[W. 
   948  009480     CALL  CLOCO001                USING  IF-CHOCO001.            
   949  009490*                                                                 
   950  009500 IbZ[Wó|dwhs.                                    
   951  009510     EXIT.                                                        
   952  009520******************************************************************
   953  009530*    caR~bg                                            *
   954  009540******************************************************************
   955  009550 caR~bg                     SECTION.                    
   956  009560 caR~bg|rs`qs.                                    
   957  009570*                                                                 
   958  009580     EXEC  SQL                                                    
   959  009590        COMMIT  WORK  RELEASE                                     
   960  009600     END-EXEC.                                                    
   961  009610*                                                                 
   962  009620     INITIALIZE                       IF-CHOCO001.                
   963  009630     MOVE  "3"                        TO  P|Cxg.     
   964  009640     MOVE  萔|vOhc       TO  P|\[Xhc.       
   965  009650     MOVE  "0"                        TO  P|AR[h.       
   966  009660     MOVE  "COMMIT"                   TO  P|.         
   967  009670     MOVE  "R~bg{"             TO  P|̑bZ[W. 
   968  009680     CALL  CLOCO001                USING  IF-CHOCO001.            
   969  009690*                                                                 
   970  009700 caR~bg|dwhs.                                      
   971  009710     EXIT.                                                        
   972  009720******************************************************************
   973  009730*    ca[obN                                        *
   974  009740******************************************************************
   975  009750 ca[obN                 SECTION.                    
   976  009760 ca[obN|rs`qs.                                
   977  009770*                                                                 
   978  009780     EXEC  SQL                                                    
   979  009790        ROLLBACK WORK  RELEASE                                    
   980  009800     END-EXEC.                                                    
   981  009810*                                                                 
   982  009820     INITIALIZE                       IF-CHOCO001.                
   983  009830     MOVE  "1"                        TO  P|Cxg.     
   984  009840     MOVE  萔|vOhc       TO  P|\[Xhc.       
   985  009850     MOVE  "9"                        TO  P|AR[h.       
   986  009860     MOVE  "ROLLBACK"                 TO  P|.         
   987  009870     MOVE  "[obN{"         TO  P|̑bZ[W. 
   988  009880     CALL  CLOCO001                USING  IF-CHOCO001.            
Pro*COBOL: Release 9.2.0.1.0 - Production on  Apr 8 17:03:24 2005

Copyright (c) 1982, 2002, Oracle Corporation.  All rights reserved.

   989  009890*                                                                 
   990  009900 ca[obN|dwhs.                                  
   991  009910     EXIT.                                                        
   992  009920******************************************************************
   993  009930*    G[                                                  *
   994  009940******************************************************************
   995  009950 G[                           SECTION.                    
   996  009960 G[|rs`qs.                                          
   997  009970*                                                                 
   998  009980     MOVE  "Y"                        TO v|ُI|tO.    
   999  009990     INITIALIZE                          IF-CHOCO001.             
  1000  010000*                                                                 
  1001  010010     EVALUATE  v|G[R[h                                   
  1002  010020        WHEN  -10                                                 
  1003  010030*--<       nq`bkdڑs >                                 
  1004  010040           MOVE  "1"                  TO  P|Cxg      
  1005  010050           MOVE  萔|vOhc TO  P|\[Xhc        
  1006  010060           MOVE  "9"                  TO  P|AR[h        
  1007  010070           MOVE  "CONNECT"            TO  P|          
  1008  010080           MOVE  SQLCODE              TO  P|f[^e        
  1009  010090           MOVE  SQLERRMC             TO  P|̑bZ[W  
  1010  010100           CALL  CLOCO001          USING  IF-CHOCO001             
  1011  010110*                                                                 
  1012  010120        WHEN  -20                                                 
  1013  010130*--<       ̓t@CPI[vs >                           
  1014  010140           MOVE  "1"                  TO  P|Cxg      
  1015  010150           MOVE  萔|vOhc TO  P|\[Xhc        
  1016  010160           MOVE  "9"                  TO  P|AR[h        
  1017  010170           MOVE  "FFUIS630"           TO  P|e[uhc  
  1018  010180           MOVE  "OPEN"               TO  P|          
  1019  010190           MOVE  v|             TO  P|f[^e        
  1020  010200           MOVE  "̓t@CPI[vs(`{t@C)"   
  1021  010210                                      TO  P|̑bZ[W  
  1022  010220           CALL  CLOCO001          USING  IF-CHOCO001             
  1023  010230*                                                                 
  1024  010240        WHEN  -30                                                 
  1025  010250*--<       ̓t@CQI[vs >                         
  1026  010260           MOVE  "1"                  TO  P|Cxg      
  1027  010270           MOVE  萔|vOhc TO  P|\[Xhc        
  1028  010280           MOVE  "9"                  TO  P|AR[h        
  1029  010290           MOVE  "FFUIS631"           TO  P|e[uhc  
  1030  010300           MOVE  "OPEN"               TO  P|          
  1031  010310           MOVE  v|             TO  P|f[^e        
  1032  010320           MOVE  "̓t@CQI[vs(`t@C)"   
  1033  010330                                      TO  P|̑bZ[W  
  1034  010340           CALL  CLOCO001          USING  IF-CHOCO001             
  1035  010350*                                                                 
  1036  010360        WHEN  -40                                                 
  1037  010370*--<       `{t@CǍG[ >                           
  1038  010380           MOVE  "1"                  TO  P|Cxg      
  1039  010390           MOVE  萔|vOhc TO  P|\[Xhc        
  1040  010400           MOVE  "9"                  TO  P|AR[h        
  1041  010410           MOVE  "FFUIS630"           TO  P|e[uhc  
  1042  010420           MOVE  "READ"               TO  P|          
  1043  010430           MOVE  v|             TO  P|f[^e        
  1044  010440           MOVE  "`{t@CǍG[ "                    
  1045  010450                                      TO  P|̑bZ[W  
  1046  010460           CALL  CLOCO001          USING  IF-CHOCO001             
  1047  010470*                                                                 
  1048  010480        WHEN  -50                                                 
  1049  010490*--<       `t@CǍG[ >                           
  1050  010500           MOVE  "1"                  TO  P|Cxg      
Pro*COBOL: Release 9.2.0.1.0 - Production on  Apr 8 17:03:24 2005

Copyright (c) 1982, 2002, Oracle Corporation.  All rights reserved.

  1051  010510           MOVE  萔|vOhc TO  P|\[Xhc        
  1052  010520           MOVE  "9"                  TO  P|AR[h        
  1053  010530           MOVE  "FFUIS631"           TO  P|e[uhc  
  1054  010540           MOVE  "READ"               TO  P|          
  1055  010550           MOVE  v|             TO  P|f[^e        
  1056  010560           MOVE  "`t@CǍG[ "                    
  1057  010570                                      TO  P|̑bZ[W  
  1058  010580           CALL  CLOCO001          USING  IF-CHOCO001             
  1059  010590*                                                                 
  1060  010600        WHEN  -60                                                 
  1061  010610*--<       R[hƌ_R[hڒoG[ >             
  1062  010620           MOVE  "2"                  TO  P|Cxg      
  1063  010630           MOVE  萔|vOhc TO  P|\[Xhc        
  1064  010640           MOVE  "9"                  TO  P|AR[h        
  1065  010650           MOVE  "IKOTBL01"          TO  P|e[uhc   
  1066  010660           MOVE  "SELECT"             TO  P|          
  1067  010670           MOVE  SQLCODE              TO  P|f[^e        
  1068  010680           MOVE  SQLERRMC             TO  P|̑bZ[W  
  1069  010690           CALL  CLOCO001          USING  IF-CHOCO001             
  1070  010700           MOVE  "N"                  TO v|ُI|tO     
  1071  010710*                                                                 
  1072  010720        WHEN  -70                                                 
  1073  010730*--<       _敪ڒoG[ >                             
  1074  010740           MOVE  "2"                  TO  P|Cxg      
  1075  010750           MOVE  萔|vOhc TO  P|\[Xhc        
  1076  010760           MOVE  "9"                  TO  P|AR[h        
  1077  010770           MOVE  "IKOTBL02"          TO  P|e[uhc   
  1078  010780           MOVE  "SELECT"             TO  P|          
  1079  010790           MOVE  SQLCODE              TO  P|f[^e        
  1080  010800           MOVE  SQLERRMC             TO  P|̑bZ[W  
  1081  010810           CALL  CLOCO001          USING  IF-CHOCO001             
  1082  010820           MOVE  "N"                  TO v|ُI|tO     
  1083  010830*                                                                 
  1084  010840        WHEN  -80                                                 
  1085  010850*--<       UolR[hƌ_R[hڒoG[ >       
  1086  010860           MOVE  "2"                  TO  P|Cxg      
  1087  010870           MOVE  萔|vOhc TO  P|\[Xhc        
  1088  010880           MOVE  "9"                  TO  P|AR[h        
  1089  010890           MOVE  "IKOTBL01"          TO  P|e[uhc   
  1090  010900           MOVE  "SELECT"             TO  P|          
  1091  010910           MOVE  SQLCODE              TO  P|f[^e        
  1092  010920           MOVE  SQLERRMC             TO  P|̑bZ[W  
  1093  010930           CALL  CLOCO001          USING  IF-CHOCO001             
  1094  010940           MOVE  "N"                  TO v|ُI|tO     
  1095  010950*                                                                 
  1096  010960        WHEN  -90                                                 
  1097  010970*--<       `e[uo(ǉ)s >                       
  1098  010980           MOVE  "1"                  TO  P|Cxg      
  1099  010990           MOVE  萔|vOhc TO  P|\[Xhc        
  1100  011000           MOVE  "9"                  TO  P|AR[h        
  1101  011010           MOVE  "D642UTG"            TO  P|e[uhc  
  1102  011020           MOVE  "INSERT"             TO  P|          
  1103  011030           MOVE  SQLCODE              TO  P|f[^e        
  1104  011040           MOVE  SQLERRMC             TO  P|̑bZ[W  
  1105  011050           CALL  CLOCO001          USING  IF-CHOCO001             
  1106  011060*                                                                 
  1107  011070        WHEN  -100                                                
  1108  011080*--<       `WJe[uo(ǉ)s >                   
  1109  011090           MOVE  "1"                  TO  P|Cxg      
  1110  011100           MOVE  萔|vOhc TO  P|\[Xhc        
  1111  011110           MOVE  "9"                  TO  P|AR[h        
  1112  011120           MOVE  "D645UTT"            TO  P|e[uhc  
Pro*COBOL: Release 9.2.0.1.0 - Production on  Apr 8 17:03:24 2005

Copyright (c) 1982, 2002, Oracle Corporation.  All rights reserved.

  1113  011130           MOVE  "INSERT"             TO  P|          
  1114  011140           MOVE  SQLCODE              TO  P|f[^e        
  1115  011150           MOVE  SQLERRMC             TO  P|̑bZ[W  
  1116  011160           CALL  CLOCO001          USING  IF-CHOCO001             
  1117  011170*                                                                 
  1118  011180        WHEN  OTHER                                               
  1119  011190           MOVE  "N"                  TO v|ُI|tO     
  1120  011200     END-EVALUATE.                                                
  1121  011210*                                                                 
  1122  011220     IF v|ُI|tO  =  "Y"                              
  1123  011230        PERFORM  ca[obN                             
  1124  011240*                                                                 
  1125  011250        PERFORM  bZ[Wo͏                           
  1126  011260*                                                                 
  1127  011270        PERFORM  IbZ[Wo                               
  1128  011280*                                                                 
  1129  011290*--<    vOُĨ^[R[h >                      
  1130  011300        MOVE  萔|ُ          TO  PROGRAM-STATUS          
  1131  011310*                                                                 
  1132  011320        EXIT  PROGRAM                                             
  1133  011330     END-IF.                                                      
  1134  011340*                                                                 
  1135  011350 G[|dwhs.                                            
  1136  011360     EXIT.                                                        
  1137  011370******************************************************************
  1138  011380*                  END OF PROGRAM                                *
  1139  011390******************************************************************
t@C: C:\COB97\SOC\COBIS630\COBIS630.PCON[Y
Pro*COBOL: Release 9.2.0.1.0 - Production on  Apr 8 17:03:24 2005

Copyright (c) 1982, 2002, Oracle Corporation.  All rights reserved.


zXgϐ
--------------

01  DB-STRING                                           Charf(20)
  Z:\COB97\COPYLIB_DB\SQLCOM.CBL      3
  C:\COB97\SOC\COBIS630\COBIS630.PCO    239

01  PASSWD                                              Charf(10)
  Z:\COB97\COPYLIB_DB\SQLCOM.CBL      5
  C:\COB97\SOC\COBIS630\COBIS630.PCO    234    238

01  SQLSTATE                                            Charf(5)
  Z:\COB97\COPYLIB_DB\SQLCOM.CBL      2
  C:\COB97\SOC\COBIS630\COBIS630.PCO    233    237    516    546    595    686    796    958    978

01  USERNAME                                            Charf(10)
  Z:\COB97\COPYLIB_DB\SQLCOM.CBL      4
  C:\COB97\SOC\COBIS630\COBIS630.PCO    234    238

03  cUSQ|TCN OF `                  Decimal(2,0)
  Z:\COB97\COPYLIB_DB\D642UTG.CBL     22
  C:\COB97\SOC\COBIS630\COBIS630.PCO    744

03  cUSQ| OF `                    Charf(8)
  Z:\COB97\COPYLIB_DB\D642UTG.CBL     21
  C:\COB97\SOC\COBIS630\COBIS630.PCO    743

03  cUSQ|_R[h OF `                  Charf(5)
  Z:\COB97\COPYLIB_DB\D642UTG.CBL     10
  C:\COB97\SOC\COBIS630\COBIS630.PCO    734

03  cUSQ|_於 OF `                    Charf(40)
  Z:\COB97\COPYLIB_DB\D642UTG.CBL     12
  C:\COB97\SOC\COBIS630\COBIS630.PCO    735

03  cUSQ|_於̃Ji OF `                Charf(40)
  Z:\COB97\COPYLIB_DB\D642UTG.CBL     13
  C:\COB97\SOC\COBIS630\COBIS630.PCO    736

03  cUSQ|_ԍP OF `                    Charf(10)
  Z:\COB97\COPYLIB_DB\D642UTG.CBL     30
  C:\COB97\SOC\COBIS630\COBIS630.PCO    749

03  cUSQ|_ԍPO OF `                  Charf(10)
  Z:\COB97\COPYLIB_DB\D642UTG.CBL     39
  C:\COB97\SOC\COBIS630\COBIS630.PCO    758

03  cUSQ|_ԍQ OF `                    Charf(10)
  Z:\COB97\COPYLIB_DB\D642UTG.CBL     31
  C:\COB97\SOC\COBIS630\COBIS630.PCO    750

03  cUSQ|_ԍR OF `                    Charf(10)
  Z:\COB97\COPYLIB_DB\D642UTG.CBL     32
  C:\COB97\SOC\COBIS630\COBIS630.PCO    751

03  cUSQ|_ԍS OF `                    Charf(10)
  Z:\COB97\COPYLIB_DB\D642UTG.CBL     33
  C:\COB97\SOC\COBIS630\COBIS630.PCO    752

03  cUSQ|_ԍT OF `                    Charf(10)
  Z:\COB97\COPYLIB_DB\D642UTG.CBL     34
Pro*COBOL: Release 9.2.0.1.0 - Production on  Apr 8 17:03:24 2005

Copyright (c) 1982, 2002, Oracle Corporation.  All rights reserved.

  C:\COB97\SOC\COBIS630\COBIS630.PCO    753

03  cUSQ|_ԍU OF `                    Charf(10)
  Z:\COB97\COPYLIB_DB\D642UTG.CBL     35
  C:\COB97\SOC\COBIS630\COBIS630.PCO    754

03  cUSQ|_ԍV OF `                    Charf(10)
  Z:\COB97\COPYLIB_DB\D642UTG.CBL     36
  C:\COB97\SOC\COBIS630\COBIS630.PCO    755

03  cUSQ|_ԍW OF `                    Charf(10)
  Z:\COB97\COPYLIB_DB\D642UTG.CBL     37
  C:\COB97\SOC\COBIS630\COBIS630.PCO    756

03  cUSQ|_ԍX OF `                    Charf(10)
  Z:\COB97\COPYLIB_DB\D642UTG.CBL     38
  C:\COB97\SOC\COBIS630\COBIS630.PCO    757

03  cUSQ|XV OF `                      Charf(8)
  Z:\COB97\COPYLIB_DB\D642UTG.CBL     48
  C:\COB97\SOC\COBIS630\COBIS630.PCO    765

03  cUSQ|XV OF `                        Charf(8)
  Z:\COB97\COPYLIB_DB\D642UTG.CBL     49
  C:\COB97\SOC\COBIS630\COBIS630.PCO    766

03  cUSQ|XVN OF `                    Charf(8)
  Z:\COB97\COPYLIB_DB\D642UTG.CBL     47
  C:\COB97\SOC\COBIS630\COBIS630.PCO    764

03  cUSQ|xsR[h OF `                Charf(7)
  Z:\COB97\COPYLIB_DB\D642UTG.CBL     28
  C:\COB97\SOC\COBIS630\COBIS630.PCO    748

03  cUSQ|_敪 OF `                    Charf(1)
  Z:\COB97\COPYLIB_DB\D642UTG.CBL     16
  C:\COB97\SOC\COBIS630\COBIS630.PCO    738

03  cUSQ|R[h OF `                  Charf(9)
  Z:\COB97\COPYLIB_DB\D642UTG.CBL      8
  C:\COB97\SOC\COBIS630\COBIS630.PCO    733

03  cUSQ| OF `                        Charf(8)
  Z:\COB97\COPYLIB_DB\D642UTG.CBL     18
  C:\COB97\SOC\COBIS630\COBIS630.PCO    740

03  cUSQ|旧sR[h OF `                Charf(7)
  Z:\COB97\COPYLIB_DB\D642UTG.CBL     26
  C:\COB97\SOC\COBIS630\COBIS630.PCO    747

03  cUSQ|` OF `                      Charf(1)
  Z:\COB97\COPYLIB_DB\D642UTG.CBL     20
  C:\COB97\SOC\COBIS630\COBIS630.PCO    742

03  cUSQ|` OF `                      Charf(1)
  Z:\COB97\COPYLIB_DB\D642UTG.CBL     17
  C:\COB97\SOC\COBIS630\COBIS630.PCO    739

03  cUSQ|`e OF `                  Charf(1)
  Z:\COB97\COPYLIB_DB\D642UTG.CBL     42
  C:\COB97\SOC\COBIS630\COBIS630.PCO    760

Pro*COBOL: Release 9.2.0.1.0 - Production on  Apr 8 17:03:24 2005

Copyright (c) 1982, 2002, Oracle Corporation.  All rights reserved.

03  cUSQ|` OF `                      Decimal(4,0)
  Z:\COB97\COPYLIB_DB\D642UTG.CBL     25
  C:\COB97\SOC\COBIS630\COBIS630.PCO    746

03  cUSQ|Uol_R[h OF `            Charf(5)
  Z:\COB97\COPYLIB_DB\D642UTG.CBL     56
  C:\COB97\SOC\COBIS630\COBIS630.PCO    770

03  cUSQ|UolR[h OF `            Charf(9)
  Z:\COB97\COPYLIB_DB\D642UTG.CBL     54
  C:\COB97\SOC\COBIS630\COBIS630.PCO    769

03  cUSQ|Uol OF `                    Charf(40)
  Z:\COB97\COPYLIB_DB\D642UTG.CBL     58
  C:\COB97\SOC\COBIS630\COBIS630.PCO    771

03  cUSQ|Uol̃Ji OF `                Charf(40)
  Z:\COB97\COPYLIB_DB\D642UTG.CBL     59
  C:\COB97\SOC\COBIS630\COBIS630.PCO    772

03  cUSQ|vz OF `                    Decimal(13,0)
  Z:\COB97\COPYLIB_DB\D642UTG.CBL     24
  C:\COB97\SOC\COBIS630\COBIS630.PCO    745

03  cUSQ| OF `                          Decimal(3,0)
  Z:\COB97\COPYLIB_DB\D642UTG.CBL      7
  C:\COB97\SOC\COBIS630\COBIS630.PCO    732

03  cUSQ|\_ԍ OF `                  Charf(10)
  Z:\COB97\COPYLIB_DB\D642UTG.CBL      5
  C:\COB97\SOC\COBIS630\COBIS630.PCO    731

03  cUSQ|`[s OF `                    Charf(8)
  Z:\COB97\COPYLIB_DB\D642UTG.CBL     19
  C:\COB97\SOC\COBIS630\COBIS630.PCO    741

03  cUSQ|o^ OF `                      Charf(8)
  Z:\COB97\COPYLIB_DB\D642UTG.CBL     45
  C:\COB97\SOC\COBIS630\COBIS630.PCO    762

03  cUSQ|o^S OF `                    Charf(8)
  Z:\COB97\COPYLIB_DB\D642UTG.CBL     46
  C:\COB97\SOC\COBIS630\COBIS630.PCO    763

03  cUSQ|o^N OF `                    Charf(8)
  Z:\COB97\COPYLIB_DB\D642UTG.CBL     44
  C:\COB97\SOC\COBIS630\COBIS630.PCO    761

03  cUSQ|͒S҃R[h OF `              Charf(8)
  Z:\COB97\COPYLIB_DB\D642UTG.CBL     50
  C:\COB97\SOC\COBIS630\COBIS630.PCO    767

03  cUSQ|p敪 OF `                  Charf(1)
  Z:\COB97\COPYLIB_DB\D642UTG.CBL     52
  C:\COB97\SOC\COBIS630\COBIS630.PCO    768

03  cUSQ|l OF `                        Charf(40)
  Z:\COB97\COPYLIB_DB\D642UTG.CBL     41
  C:\COB97\SOC\COBIS630\COBIS630.PCO    759

03  cUSQ|XR[h OF `                    Charf(4)
  Z:\COB97\COPYLIB_DB\D642UTG.CBL     15
Pro*COBOL: Release 9.2.0.1.0 - Production on  Apr 8 17:03:24 2005

Copyright (c) 1982, 2002, Oracle Corporation.  All rights reserved.

  C:\COB97\SOC\COBIS630\COBIS630.PCO    737

03  cUST| OF `WJ                      Charf(8)
  Z:\COB97\COPYLIB_DB\D645UTT.CBL     10
  C:\COB97\SOC\COBIS630\COBIS630.PCO    821

03  cUST|z OF `WJ                      Decimal(13,0)
  Z:\COB97\COPYLIB_DB\D645UTT.CBL     11
  C:\COB97\SOC\COBIS630\COBIS630.PCO    822

03  cUST|XV OF `WJ                  Charf(8)
  Z:\COB97\COPYLIB_DB\D645UTT.CBL     23
  C:\COB97\SOC\COBIS630\COBIS630.PCO    831

03  cUST|XV OF `WJ                    Charf(8)
  Z:\COB97\COPYLIB_DB\D645UTT.CBL     24
  C:\COB97\SOC\COBIS630\COBIS630.PCO    832

03  cUST|XVN OF `WJ                Charf(8)
  Z:\COB97\COPYLIB_DB\D645UTT.CBL     22
  C:\COB97\SOC\COBIS630\COBIS630.PCO    830

03  cUST|` OF `WJ                  Charf(1)
  Z:\COB97\COPYLIB_DB\D645UTT.CBL     27
  C:\COB97\SOC\COBIS630\COBIS630.PCO    834

03  cUST|`ԍ OF `WJ                  Charf(10)
  Z:\COB97\COPYLIB_DB\D645UTT.CBL      9
  C:\COB97\SOC\COBIS630\COBIS630.PCO    820

03  cUST|Uol_R[h OF `            Charf(5)
  Z:\COB97\COPYLIB_DB\D645UTT.CBL     14
  C:\COB97\SOC\COBIS630\COBIS630.PCO    824

03  cUST|UolR[h OF `            Charf(9)
  Z:\COB97\COPYLIB_DB\D645UTT.CBL     12
  C:\COB97\SOC\COBIS630\COBIS630.PCO    823

03  cUST|Uol OF `WJ                Charf(40)
  Z:\COB97\COPYLIB_DB\D645UTT.CBL     16
  C:\COB97\SOC\COBIS630\COBIS630.PCO    825

03  cUST|Uol̃Ji OF `WJ            Charf(40)
  Z:\COB97\COPYLIB_DB\D645UTT.CBL     17
  C:\COB97\SOC\COBIS630\COBIS630.PCO    826

03  cUST| OF `WJ                      Decimal(3,0)
  Z:\COB97\COPYLIB_DB\D645UTT.CBL      7
  C:\COB97\SOC\COBIS630\COBIS630.PCO    818

03  cUST|\_ԍ OF `WJ              Charf(10)
  Z:\COB97\COPYLIB_DB\D645UTT.CBL      5
  C:\COB97\SOC\COBIS630\COBIS630.PCO    817

03  cUST|o^ OF `WJ                  Charf(8)
  Z:\COB97\COPYLIB_DB\D645UTT.CBL     20
  C:\COB97\SOC\COBIS630\COBIS630.PCO    828

03  cUST|o^S OF `WJ                Charf(8)
  Z:\COB97\COPYLIB_DB\D645UTT.CBL     21
  C:\COB97\SOC\COBIS630\COBIS630.PCO    829

Pro*COBOL: Release 9.2.0.1.0 - Production on  Apr 8 17:03:24 2005

Copyright (c) 1982, 2002, Oracle Corporation.  All rights reserved.

03  cUST|o^N OF `WJ                Charf(8)
  Z:\COB97\COPYLIB_DB\D645UTT.CBL     19
  C:\COB97\SOC\COBIS630\COBIS630.PCO    827

03  cUST|͒S҃R[h OF `W            Charf(8)
  Z:\COB97\COPYLIB_DB\D645UTT.CBL     25
  C:\COB97\SOC\COBIS630\COBIS630.PCO    833

03  cUST|A OF `WJ                      Decimal(3,0)
  Z:\COB97\COPYLIB_DB\D645UTT.CBL      8
  C:\COB97\SOC\COBIS630\COBIS630.PCO    819

01  hjnOOP|}                                  Charf(3)
  Z:\COB97\COPYLIB_DB\IKOTBL001.CBL      7
  C:\COB97\SOC\COBIS630\COBIS630.PCO    520    599

01  hjnOOP|VR[h                        Charf(7)
  Z:\COB97\COPYLIB_DB\IKOTBL001.CBL      6
  C:\COB97\SOC\COBIS630\COBIS630.PCO    519    598

01  hjnOOQ|_敪                            Charf(1)
  Z:\COB97\COPYLIB_DB\IKOTBL002.CBL     12
  C:\COB97\SOC\COBIS630\COBIS630.PCO    548

01  vr|_mn                                      Charf(9)
  C:\COB97\SOC\COBIS630\COBIS630.PCO     73    550

01  vr|xlR[h                                  Charf(8)
  C:\COB97\SOC\COBIS630\COBIS630.PCO     74    601

01  vr|R[h                                  Charf(8)
  C:\COB97\SOC\COBIS630\COBIS630.PCO     71    522

01  vr|ړIbc                                      Charf(1)
  C:\COB97\SOC\COBIS630\COBIS630.PCO     72    523    602

Pro*COBOL: Release 9.2.0.1.0 - Production on  Apr 8 17:03:24 2005

Copyright (c) 1982, 2002, Oracle Corporation.  All rights reserved.



                              vRpCEIvV
-------------------------------------------------------------------------------
IvV   ݂̐ݒl         ݒ
-------------------------------------------------------------------------------
asacc             no                ftHg                                  
assume_sqlcode    no                ftHg                                  
auto_connect      no                ftHg                                  
close_on_commit   yes               mode                                        
comp5             yes               D:\oracle\ora90\precomp\admin\pcbcfg.cfg    
config            default config    ftHg                                  
date_format       local             ftHg                                  
dbms              native            ftHg                                  
declare_section   yes               mode                                        
define            *Ȃ*            ftHg                                  
dynamic           ansi              mode                                        
end_of_fetch      100               mode                                        
eol_padding       yes               ftHg                                  
errors            yes               ftHg                                  
fips              no                ftHg                                  
format            ansi              ftHg                                  
hold_cursor       no                ftHg                                  
host              cobol             ftHg                                  
iname             C:\COB97\SOC\COBISR}hCCO                            
include           Z:\COB97\COPYLIB  D:\oracle\ora90\precomp\admin\pcbcfg.cfg    
                  Z:\COB97\COPYLIB_DD:\oracle\ora90\precomp\admin\pcbcfg.cfg    
                  *Ȃ*            D:\oracle\ora90\precomp\admin\pcbcfg.cfg    
ireclen           132               D:\oracle\ora90\precomp\admin\pcbcfg.cfg    
litdelim          quote             ftHg                                  
lname             *Ȃ*            ftHg                                  
lreclen           132               ftHg                                  
ltype             long              ftHg                                  
maxliteral        160               D:\oracle\ora90\precomp\admin\pcbcfg.cfg    
maxopencursors    10                ftHg                                  
mode              ANSI              D:\oracle\ora90\precomp\admin\pcbcfg.cfg    
nested            yes               ftHg                                  
nls_local         yes               D:\oracle\ora90\precomp\admin\pcbcfg.cfg    
oname             COBIS630.COB      R}hC                              
oraca             no                ftHg                                  
oreclen           80                ftHg                                  
pagelen           66                ftHg                                  
picx              charf             ftHg                                  
prefetch          1                 ftHg                                  
release_cursor    no                ftHg                                  
select_error      yes               ftHg                                  
sqlcheck          FULL              D:\oracle\ora90\precomp\admin\pcbcfg.cfg    
threads           no                ftHg                                  
type_code         ansi              mode                                        
unsafe_null       no                ftHg                                  
userid            JIYAN/JY@FIP      D:\oracle\ora90\precomp\admin\pcbcfg.cfg    
varchar           no                ftHg                                  
xref              yes               ftHg                                  
Pro*COBOL: Release 9.2.0.1.0 - Production on  Apr 8 17:03:24 2005

Copyright (c) 1982, 2002, Oracle Corporation.  All rights reserved.


v\
----------

^[ER[h: 0
dv Ił̃bZ[W: 0
dv Wł̃bZ[W: 0
dv Eł̃bZ[W: 0
dv Fł̃bZ[W: 0
̓C̐: 1256
錾ꂽzXgϐ̐: 88
J[\̐: 0
̐: 0
gpő僁[(oCg): 213278
