Pro*COBOL: Release 9.2.0.1.0 - Production on y Apr 9 12:48:31 2005

Copyright (c) 1982, 2002, Oracle Corporation.  All rights reserved.

t@C: COBIS660.PCOI[v
     1  000010******************************************************************
     2  000020*         CP(A)                                     *
     3  000030*      1. vO  : Ǘ^M_ڍs                   *
     4  000040*      2. vOID  : COBIS660                               *
     5  000050*      3. Tv      : @^M({E)SΏۂƂė^M *
     6  000060*                          ()PʂɊǗ^M_쐬        *
     7  000070*                         Aŗ擾B         *
     8  000080*                         B۔Fɓo^ꂽ_ł邩ۂ   *
     9  000090*                            _e擾B              *
    10  000100*      4. 쐬        : N                                 *
    11  000110*      5. 쐬        : 2005.4.1                               *
    12  000120******************************************************************
    13  000130*                                                                 
    14  000140******************************************************************
    15  000150*    hcdmshehb`shnm  chuhrhnm              *
    16  000160******************************************************************
    17  000170 IDENTIFICATION                       DIVISION.                   
    18  000180*                                                                 
    19  000190 PROGRAM-ID.                          COBIS660.                   
    20  000200******************************************************************
    21  000210*    dmuhqnmldms        chuhrhnm              *
    22  000220******************************************************************
    23  000230 ENVIRONMENT                          DIVISION.                   
    24  000240******************************************************************
    25  000250*    INPUT-OUTPUT                     SECTION                    *
    26  000260******************************************************************
    27  000270 INPUT-OUTPUT                          SECTION.                   
    28  000280*                                                                 
    29  000290 FILE-CONTROL.                                                    
    30  000300     SELECT  oJt@C       ASSIGN     TO       U11           
    31  000310     FILE    STATUS         IS         v|                   
    32  000320     ORGANIZATION           IS         LINE        SEQUENTIAL.    
    33  000330******************************************************************
    34  000340*    c`s`                      chuhrhnm              *
    35  000350******************************************************************
    36  000360 DATA                                 DIVISION.                   
    37  000370******************************************************************
    38  000380*            oJt@C                                        *
    39  000390******************************************************************
    40  000400 FILE                                 SECTION.                    
    41  000410 FD  oJt@C                                                 
    42  000420     LABEL     RECORD     IS          STANDARD                    
    43  000430     BLOCK     CONTAINS   0           RECORDS.                    
    44  000440*                                                                 
    45  000450 01  oJ[R[h.                                              
    46  000460     COPY   CISUF660   REPLACING   ==()==  BY  ==oJ[==.        
    47  000470******************************************************************
    48  000480*  vnqjhmf|rsnq`fd  rdbshnm                *
    49  000490******************************************************************
    50  000500  WORKING-STORAGE                     SECTION.                    
    51  000510*----------------------------------------------------------------*
    52  000520*    zXgϐ`GA                                        *
    53  000530*----------------------------------------------------------------*
    54  000540     EXEC  SQL  BEGIN  DECLARE        SECTION  END-EXEC.          
    55  000550*--<Ǘ^MR[h>                                             
    56  000560 01  vr|Ǘ^M                 PIC     X(08).              
    57  000570*                                                                 
    58  000580*--< nq`bkdʕϐ >                                       
    59  000590     EXEC  SQL  INCLUDE  SQLCOM.CBL            END-EXEC.          
    60  000600*                                                                 
    61  000610*--< nq`bkd  rpks >                               
Pro*COBOL: Release 9.2.0.1.0 - Production on y Apr 9 12:48:31 2005

Copyright (c) 1982, 2002, Oracle Corporation.  All rights reserved.

t@C: Z:\COB97\COPYLIB_DB\SQLCOM.CBLI[v
     1  000010*--rpkʕϐ
     2  000030   01  SQLSTATE                      PIC  X(005).
     3  000040   01  DB-STRING                     PIC  X(020).
     4  000050   01  USERNAME                      PIC  X(010).
     5  000060   01  PASSWD                        PIC  X(010).
     6  000070*
t@C: Z:\COB97\COPYLIB_DB\SQLCOM.CBLN[Y
    62  000620     EXEC  SQL  INCLUDE  SQLCA.COB             END-EXEC.          
    63  000630*                                                                 
    64  000640*--< ^M({)e[u>                                          
    65  000650     EXEC  SQL  INCLUDE  YOSHINKIHON.CBL       END-EXEC.          
    66  000660*                                                                 
    67  000670*--<^M()e[u >                                          
t@C: Z:\COB97\COPYLIB_DB\YOSHINKIHON.CBLI[v
     1  000010************************************************
     2  000020* ^M({)(YOSHINKIHON)
     3  000030************************************************
     4  000040 01  xnrghmjhgnm|Ǘ^MR[h  PIC  X(008).
     5  000050 01  xnrghmjhgnm|Ǘ^M敪  PIC  X(001).
     6  000060 01  xnrghmjhgnm|^M敪  PIC  X(001).
     7  000070 01  xnrghmjhgnm|̓  PIC  X(008).
     8  000080 01  xnrghmjhgnm|敪  PIC  X(001).
     9  000090 01  xnrghmjhgnm|Ǘ^M於  PIC  X(080).
    10  000100 01  xnrghmjhgnm|Lϗ  PIC S9(013) COMP-3.
    11  000110 01  xnrghmjhgnm|ϗ  PIC S9(013) COMP-3.
    12  000120 01  xnrghmjhgnm|wxy敪  PIC  X(001).
    13  000130 01  xnrghmjhgnm|P  PIC  X(112).
    14  000140 01  xnrghmjhgnm|Q  PIC  X(112).
    15  000150 01  xnrghmjhgnm|R  PIC  X(112).
    16  000160 01  xnrghmjhgnm|S  PIC  X(112).
    17  000170 01  xnrghmjhgnm|T  PIC  X(112).
    18  000180 01  xnrghmjhgnm|U  PIC  X(112).
    19  000190 01  xnrghmjhgnm|SۂP  PIC  X(010).
    20  000200 01  xnrghmjhgnm|SۂQ  PIC  X(010).
    21  000210 01  xnrghmjhgnm|SۂR  PIC  X(010).
t@C: Z:\COB97\COPYLIB_DB\YOSHINKIHON.CBLN[Y
    68  000680     EXEC  SQL  INCLUDE  YOSHINMEISAI.CBL      END-EXEC.          
    69  000690*                                                                 
    70  000700*--<_ee[u>                                             
t@C: Z:\COB97\COPYLIB_DB\YOSHINMEISAI.CBLI[v
     1  000010************************************************
     2  000020* ^M()(YOSHINMEISAI)
     3  000030************************************************
     4  000040 01  xnrghmldhr`h|Ǘ^MR[h  PIC  X(008).
     5  000050 01  xnrghmldhr`h|Ǘ^M敪  PIC  X(001).
     6  000060 01  xnrghmldhr`h|^M敪  PIC  X(001).
     7  000070 01  xnrghmldhr`h|̓  PIC  X(008).
     8  000080 01  xnrghmldhr`h|_mn  PIC  X(009).
     9  000090 01  xnrghmldhr`h|R[h  PIC  X(002).
    10  000100 01  xnrghmldhr`h|ƏR[h  PIC  X(004).
    11  000110 01  xnrghmldhr`h|tOP  PIC  X(002).
    12  000120 01  xnrghmldhr`h|tOQ  PIC  X(002).
    13  000130 01  xnrghmldhr`h|  PIC  X(060).
    14  000140 01  xnrghmldhr`h|_  PIC  X(008).
    15  000150 01  xnrghmldhr`h|  PIC  X(008).
    16  000160 01  xnrghmldhr`h|  PIC  X(008).
    17  000170 01  xnrghmldhr`h|؊Jn  PIC  X(008).
    18  000180 01  xnrghmldhr`h|ݕtʌ  PIC S9(013) COMP-3.
    19  000190 01  xnrghmldhr`h|ғY  PIC S9(013) COMP-3.
    20  000200 01  xnrghmldhr`h|i  PIC S9(013) COMP-3.
    21  000210 01  xnrghmldhr`h|Mpیtۋ敪  PIC  X(001).
Pro*COBOL: Release 9.2.0.1.0 - Production on y Apr 9 12:48:31 2005

Copyright (c) 1982, 2002, Oracle Corporation.  All rights reserved.

    22  000220 01  xnrghmldhr`h|Mpی  PIC S9(013) 
    23  000230                                                     COMP-3.
    24  000240 01  xnrghmldhr`h|_z  PIC S9(013) COMP-3.
    25  000250 01  xnrghmldhr`h|cz  PIC S9(013) COMP-3.
    26  000260 01  xnrghmldhr`h|  PIC  X(002).
    27  000270 01  xnrghmldhr`h|Jn  PIC  X(001).
    28  000280 01  xnrghmldhr`h|׎x  PIC  X(003).
    29  000290 01  xnrghmldhr`h|vZ  PIC  X(001).
    30  000300 01  xnrghmldhr`h|TCN  PIC  X(002).
    31  000310 01  xnrghmldhr`h|k  PIC S9(013) COMP-3.
    32  000320 01  xnrghmldhr`h|Nx敪  PIC  X(001).
    33  000330 01  xnrghmldhr`h|̍c  PIC S9(013) COMP-3.
    34  000340 01  xnrghmldhr`h|̌{c  PIC S9(013) COMP-3.
    35  000350 01  xnrghmldhr`h|c  PIC S9(013) COMP-3.
    36  000360 01  xnrghmldhr`h|{c  PIC S9(013) COMP-3.
    37  000370 01  xnrghmldhr`h|mc  PIC S9(013) COMP-3.
    38  000380 01  xnrghmldhr`h|m{c  PIC S9(013) COMP-3.
    39  000390 01  xnrghmldhr`h|{  PIC S9(013) COMP-3.
    40  000400 01  xnrghmldhr`h|  PIC S9(013) COMP-3.
    41  000410 01  xnrghmldhr`h|  PIC S9(013) COMP-3.
    42  000420 01  xnrghmldhr`h|a  PIC S9(013) COMP-3.
    43  000430 01  xnrghmldhr`h|pz  PIC S9(013) COMP-3.
    44  000440 01  xnrghmldhr`h|XVt  PIC  X(008).
    45  000450 01  xnrghmldhr`h|Œ藘  PIC S9(003)V9(8) 
    46  000460                                                    COMP-3.
    47  000470 01  xnrghmldhr`h|ϓ敪  PIC  X(001).
    48  000480 01  xnrghmldhr`h|Xvbh  PIC S9(003)V9(8) 
    49  000490                                                    COMP-3.
    50  000500 01  xnrghmldhr`h|A敪  PIC  X(001).
t@C: Z:\COB97\COPYLIB_DB\YOSHINMEISAI.CBLN[Y
    71  000710     EXEC  SQL  INCLUDE  D31KYK.CBL            END-EXEC.          
    72  000720*--<e[u>                                                 
t@C: Z:\COB97\COPYLIB_DB\D31KYK.CBLI[v
     1        *****************************************************************
     2        *   _e(D31KYK_TBL)
     3        *****************************************************************
     4         01  _e.
     5             03  cRP|_ԍ      PIC  X(010).
     6             03  cRP|ă[X  PIC S9(002) PACKED-DECIMAL.
     7             03  cRP|ϔԍ      PIC S9(007) PACKED-DECIMAL.
     8             03  cRP|ϔԍ}  PIC S9(002) PACKED-DECIMAL.
     9             03  cRP|R[h  PIC  X(009).
    10             03  cRP|gcٓ    PIC  X(008).
    11             03  cRP|ݕts\
    12                                       PIC  X(008).
    13             03  cRP|N    PIC  X(008).
    14             03  cRP|nN    PIC  X(008).
    15             03  cRP|_Jn    PIC  X(008).
    16             03  cRP|_I    PIC  X(008).
    17             03  cRP|          PIC S9(003) PACKED-DECIMAL.
    18             03  cRP|_񌏖      PIC  X(060).
    19             03  cRP|Gh[UR[h
    20                                       PIC  X(009).
    21             03  cRP|_敪      PIC  X(001).
    22             03  cRP|Љ[g    PIC  X(001).
    23             03  cRP|SۃR[h
    24                                       PIC  X(004).
    25             03  cRP|S҃R[h  PIC  X(008).
    26             03  cRP|ϑ        PIC  X(001).
    27             03  cRP|z      PIC S9(013) PACKED-DECIMAL.
    28             03  cRP|_񑍊z      PIC S9(013) PACKED-DECIMAL.
    29             03  cRP|ă[X
Pro*COBOL: Release 9.2.0.1.0 - Production on y Apr 9 12:48:31 2005

Copyright (c) 1982, 2002, Oracle Corporation.  All rights reserved.

    30                                       PIC S9(013) PACKED-DECIMAL.
    31             03  cRP|ă[X敪
    32                                       PIC  X(001).
    33             03  cRP|Mpی敪  PIC  X(001).
    34             03  cRP|Sۋ敪      PIC  X(001).
    35             03  cRP|敪      PIC  X(001).
    36             03  cRP|_R[h  PIC  X(005).
    37             03  cRP|劲R[h
    38                                       PIC  X(009).
    39             03  cRP|        PIC S9(002)V9(008) PACKED-DECIMAL.
    40             03  cRP|[U  PIC S9(002)V9(008) PACKED-DECIMAL.
    41             03  cRP|v    PIC S9(002)V9(008) PACKED-DECIMAL.
    42             03  cRP|Г      PIC S9(002)V9(008) PACKED-DECIMAL.
    43             03  cRP|R[h  PIC  X(005).
    44             03  cRP|쐬敪
    45                                       PIC  X(001).
    46             03  cRP|      PIC  X(060).
    47             03  cRP|P@
    48                                       PIC  X(001).
    49             03  cRP|PTCg
    50                                       PIC S9(002) PACKED-DECIMAL.
    51             03  cRP|P  PIC S9(002) PACKED-DECIMAL.
    52             03  cRP|P
    53                                       PIC S9(002) PACKED-DECIMAL.
    54             03  cRP|U֊JnN  PIC  X(006).
    55             03  cRP|O敪      PIC  X(001).
    56             03  cRP|敪      PIC  X(001).
    57             03  cRP|cƃRgP
    58                                       PIC  X(080).
    59             03  cRP|cƃRgQ
    60                                       PIC  X(080).
    61             03  cRP|ԃtO    PIC  X(001).
    62             03  cRP|ēt敪
    63                                       PIC  X(001).
    64             03  cRP|ē񓚋敪
    65                                       PIC  X(001).
    66             03  cRP|_敪    PIC  X(001).
    67             03  cRP|ky敪  PIC  X(001).
    68             03  cRP|kyN  PIC  X(006).
    69             03  cRP|Gg
    70                                       PIC  X(008).
    71             03  cRP|    PIC  X(008).
    72             03  cRP|Gg
    73                                       PIC  X(008).
    74             03  cRP|N  PIC  X(006).
    75             03  cRP|N  PIC  X(006).
    76             03  cRP|  PIC S9(003) PACKED-DECIMAL.
    77             03  cRP|ŐV  PIC S9(003) PACKED-DECIMAL.
    78             03  cRP|ŏIԍ  PIC S9(004) PACKED-DECIMAL.
    79             03  cRP|ă[Xf[^쐬敪
    80                                       PIC  X(001).
    81             03  cRP|ă[X쐬N
    82                                       PIC  X(008).
    83             03  cRP|[XO
    84                                       PIC S9(002) PACKED-DECIMAL.
    85             03  cRP|쐬tO
    86                                       PIC  X(001).
    87             03  cRP|O쐬tO
    88                                       PIC  X(001).
    89             03  cRP|σtO
    90                                       PIC  X(001).
    91             03  cRP|OσtO
Pro*COBOL: Release 9.2.0.1.0 - Production on y Apr 9 12:48:31 2005

Copyright (c) 1982, 2002, Oracle Corporation.  All rights reserved.

    92                                       PIC  X(001).
    93             03  cRP|\tO
    94                                       PIC  X(001).
    95             03  cRP|tO    PIC  X(001).
    96             03  cRP|N    PIC  X(008).
    97             03  cRP|    PIC S9(003) PACKED-DECIMAL.
    98             03  cRP|mF      PIC  X(001).
    99             03  cRP|܂ߒP    PIC  X(001).
   100             03  cRP|@  PIC  X(001).
   101             03  cRP|_ԉ񐔈L
   102                                       PIC  X(001).
   103             03  cRP|Gg
   104                                       PIC  X(008).
   105             03  cRP|Gg
   106                                       PIC  X(008).
   107             03  cRP|񏈗N  PIC  X(006).
   108             03  cRP|N  PIC  X(006).
   109             03  cRP|ă[XԊu
   110                                       PIC S9(002) PACKED-DECIMAL.
   111             03  cRP|ă[XԊu
   112                                       PIC S9(002) PACKED-DECIMAL.
   113             03  cRP|XVN    PIC  X(008).
   114             03  cRP|XV      PIC  X(008).
   115             03  cRP|XV        PIC  X(008).
   116             03  cRP|    PIC S9(002)V9(008) PACKED-DECIMAL.
   117             03  cRP|ez    PIC S9(013) PACKED-DECIMAL.
   118             03  cRP|z  PIC S9(013) PACKED-DECIMAL.
   119             03  cRP|_񑍊z  PIC S9(013) PACKED-DECIMAL.
   120             03  cRP|ȍ~TCg
   121                                       PIC S9(002) PACKED-DECIMAL.
   122             03  cRP|ȍ~    PIC S9(002) PACKED-DECIMAL.
   123             03  cRP|ȍ~Ԋu  PIC S9(002) PACKED-DECIMAL.
   124             03  cRP|ԍ    PIC  X(010).
   125             03  cRP|Gg
   126                                       PIC  X(008).
   127             03  cRP|񏈗N  PIC  X(006).
   128             03  cRP|Gg
   129                                       PIC  X(008).
   130             03  cRP|N
   131                                       PIC  X(006).
   132             03  cRP|\tO
   133                                       PIC  X(001).
   134             03  cRP|\Gg
   135                                       PIC  X(008).
   136             03  cRP|N  PIC  X(006).
   137             03  cRP|ă[XGg
   138                                       PIC  X(008).
   139             03  cRP|ă[XN
   140                                       PIC  X(006).
   141             03  cRP|ă[XGg
   142                                       PIC  X(008).
   143             03  cRP|ă[XN
   144                                       PIC  X(006).
   145             03  cRP|pGg
   146                                       PIC  X(008).
   147             03  cRP|pN  PIC  X(006).
   148             03  cRP|pGg
   149                                       PIC  X(008).
   150             03  cRP|pN
   151                                       PIC  X(006).
   152             03  cRP|pGg
   153                                       PIC  X(008).
Pro*COBOL: Release 9.2.0.1.0 - Production on y Apr 9 12:48:31 2005

Copyright (c) 1982, 2002, Oracle Corporation.  All rights reserved.

   154             03  cRP|pN  PIC  X(006).
   155             03  cRP|ύXGg
   156                                       PIC  X(008).
   157             03  cRP|ύXN
   158                                       PIC  X(006).
   159             03  cRP|Ǘx
   160                                       PIC  X(001).
   161             03  cRP|_񗿗      PIC S9(002)V9(008) PACKED-DECIMAL.
   162             03  cRP|ez        PIC S9(013) PACKED-DECIMAL.
   163             03  cRP|_񗿗  PIC S9(002)V9(008) PACKED-DECIMAL.
   164             03  cRP|ȍ~@  PIC  X(001).
   165             03  cRP|TCg    PIC S9(002) PACKED-DECIMAL.
   166             03  cRP|Ԋu      PIC S9(002) PACKED-DECIMAL.
   167             03  cRP|    PIC S9(002) PACKED-DECIMAL.
   168             03  cRP|_敪  PIC  X(001).
   169             03  cRP|ӔC敪      PIC  X(001).
   170             03  cRP|E敪      PIC  X(001).
   171             03  cRP|o͋敪
   172                                       PIC  X(001).
   173             03  cRP|ē[敪
   174                                       PIC  X(001).
   175             03  cRP|ă[XtO
   176                                       PIC  X(001).
   177             03  cRP|ă[Xp敪
   178                                       PIC  X(001).
   179             03  cRP|_񏑎      PIC  X(001).
   180             03  cRP|ۊǏꏊ  PIC  X(001).
   181             03  cRP|敪    PIC  X(001).
   182             03  cRP|sYSېݒz
   183                                       PIC S9(013) PACKED-DECIMAL.
   184             03  cRP|L،Sېݒz
   185                                       PIC S9(013) PACKED-DECIMAL.
   186             03  cRP|̑Sېݒz
   187                                       PIC S9(013) PACKED-DECIMAL.
   188             03  cRP|ۏؐlL敪
   189                                       PIC  X(001).
   190             03  cRP|cΏۊOtO
   191                                       PIC  X(001).
   192             03  cRP|یЋ敪  PIC  X(004).
   193             03  cRP|ی    PIC S9(013) PACKED-DECIMAL.
   194             03  cRP|tۊJnN
   195                                       PIC  X(008).
   196             03  cRP|͒S҃R[h
   197                                       PIC  X(008).
   198             03  cRP|R[h
   199                                       PIC  X(009).
   200             03  cRP|⍇ԍ    PIC  X(010).
   201             03  cRP|ă[X敪  PIC  X(001).
   202             03  cRP|_ԍ    PIC  X(010).
   203             03  cRP|wIt[X敪
   204                                       PIC  X(001).
   205             03  cRP|ă[X\L敪
   206                                       PIC  X(001).
   207             03  cRP|ă[X\tO
   208                                       PIC  X(001).
   209             03  cRP|p\tO
   210                                       PIC  X(001).
   211             03  cRP|\A      PIC S9(002) PACKED-DECIMAL.
   212             03  cRP|XPtO  PIC  X(001).
   213             03  cRP|evz|\  PIC S9(013) PACKED-DECIMAL.
   214             03  cRP|x׏쐬σtO
   215                                       PIC  X(001).
Pro*COBOL: Release 9.2.0.1.0 - Production on y Apr 9 12:48:31 2005

Copyright (c) 1982, 2002, Oracle Corporation.  All rights reserved.

   216             03  cRP|x׏v
   217                                       PIC  X(001).
   218             03  cRP|\N    PIC  X(008).
   219             03  cRP|Ώی{z    PIC S9(013) PACKED-DECIMAL.
   220             03  cRP|ŗ敪  PIC  X(002).
   221             03  cRP|\o͔N
   222                                       PIC  X(008).
   223             03  cRP|ă[X\o͔N
   224                                       PIC  X(008).
   225             03  cRP|      PIC  X(001).
   226             03  cRP|ă[XTCg
   227                                       PIC S9(002) PACKED-DECIMAL.
   228             03  cRP|ă[X
   229                                       PIC S9(002) PACKED-DECIMAL.
   230             03  cRP|Gێ痿    PIC S9(013) PACKED-DECIMAL.
   231             03  cRP|G̑    PIC S9(013) PACKED-DECIMAL.
   232             03  cRP|GMpی  PIC S9(013) PACKED-DECIMAL.
   233             03  cRP|G̑    PIC S9(013) PACKED-DECIMAL.
   234             03  cRP|tO
   235                                       PIC  X(001).
   236             03  cRP|tO
   237                                       PIC  X(001).
   238             03  cRP|ă[X敪
   239                                       PIC  X(001).
   240             03  cRP|_񏑔sσtO
   241                                       PIC  X(001).
   242             03  cRP|sσtO
   243                                       PIC  X(001).
   244             03  cRP|̑sσtO
   245                                       PIC  X(001).
   246             03  cRP|cƃRgR
   247                                       PIC  X(080).
   248             03  cRP|Г敪  PIC  X(001).
   249             03  cRP|Gz    PIC S9(013) PACKED-DECIMAL.
   250             03  cRP|I[vuCh敪
   251                                       PIC  X(001).
   252             03  cRP|敪  PIC  X(001).
   253             03  cRP|PNx_    PIC  X(001).
   254             03  cRP|obN    PIC  X(001).
   255             03  cRP|۔F敪      PIC  X(001).
   256             03  cRP|On敪    PIC  X(001).
   257             03  cRP|ېŋ敪    PIC  X(001).
   258             03  cRP|敪      PIC  X(001).
   259             03  cRP|COݒu敪  PIC  X(001).
   260             03  cRP|Rg  PIC  X(040).
   261             03  cRP|vZ@
   262                                       PIC  X(001).
   263             03  cRP|\    PIC  X(008).
   264             03  cRP|\_zZtO
   265                                       PIC  X(001).
   266             03  cRP|Љ  PIC  X(009).
   267             03  cRP|Љ_  PIC  X(005).
   268             03  cRP|Љasl  PIC  X(004).
   269             03  cRP|Љ旻X    PIC  X(004).
   270             03  cRP|Љs    PIC  X(004).
   271             03  cRP|ЉxX    PIC  X(003).
   272             03  cRP|        PIC  X(002).
   273             03  cRP|_RP
   274                                       PIC  X(080).
   275             03  cRP|_RQ
   276                                       PIC  X(080).
   277             03  cRP|_\sσtO
Pro*COBOL: Release 9.2.0.1.0 - Production on y Apr 9 12:48:31 2005

Copyright (c) 1982, 2002, Oracle Corporation.  All rights reserved.

   278                                       PIC  X(001).
   279             03  cRP|ٓo^\tO
   280                                       PIC  X(001).
   281             03  cRP|_o^\tO
   282                                       PIC  X(001).
   283             03  cRP|o^\tO
   284                                       PIC  X(001).
   285             03  cRP|_\tO
   286                                       PIC  X(001).
   287             03  cRP|\tO
   288                                       PIC  X(001).
   289             03  cRP|ύX\tO
   290                                       PIC  X(001).
   291             03  cRP|ύXtO    PIC  X(001).
   292             03  cRP|ύXN    PIC  X(008).
   293             03  cRP|R[h
   294                                       PIC  X(002).
   295             03  cRP|ʑ敪  PIC  X(001).
   296             03  cRP|x[X    PIC  X(001).
   297             03  cRP|{葍z
   298                                       PIC S9(002)V9(008) PACKED-DECIMAL.
   299             03  cRP|葍z
   300                                       PIC S9(002)V9(008) PACKED-DECIMAL.
   301             03  cRP|ezz  PIC S9(013) PACKED-DECIMAL.
   302             03  cRP|ʎГ  PIC S9(002)V9(008) PACKED-DECIMAL.
   303             03  cRP|ʊ{
   304                                       PIC S9(002)V9(008) PACKED-DECIMAL.
   305             03  cRP|ʎ
   306                                       PIC S9(002)V9(008) PACKED-DECIMAL.
   307             03  cRP|ʑez    PIC S9(013) PACKED-DECIMAL.
   308             03  cRP|ʊ{葍z
   309                                       PIC S9(002)V9(008) PACKED-DECIMAL.
   310             03  cRP|ʎ葍z
   311                                       PIC S9(002)V9(008) PACKED-DECIMAL.
   312             03  cRP|ʑezЕ
   313                                       PIC S9(013) PACKED-DECIMAL.
   314             03  cRP|ۑtO
   315                                       PIC  X(001).
   316             03  cRP|o^N    PIC  X(008).
   317             03  cRP|o^      PIC  X(008).
   318             03  cRP|o^S    PIC  X(008).
   319             03  cRP|][XgR[h
   320                                       PIC  X(003).
   321             03  cRP|萔    PIC S9(013) PACKED-DECIMAL.
   322             03  cRP|Ɩ敪      PIC  X(001).
   323             03  cRP|ߋ`敪  PIC  X(001).
   324             03  cRP|㗝      PIC  X(001).
   325             03  cRP|z      PIC S9(013) PACKED-DECIMAL.
   326             03  cRP|ϓ敪  PIC  X(001).
   327             03  cRP|A敪  PIC  X(002).
   328             03  cRP|        PIC S9(002)V9(008) PACKED-DECIMAL.
   329             03  cRP|ݕtz      PIC S9(013) PACKED-DECIMAL.
   330             03  cRP|ݕt      PIC S9(002)V9(008) PACKED-DECIMAL.
   331             03  cRP|gr敪  PIC  X(002).
   332             03  cRP|gr  PIC  X(080).
   333             03  cRP|xϑ`
   334                                       PIC  X(001).
   335             03  cRP|Z@      PIC  X(001).
   336             03  cRP|ԍϏ      PIC  X(001).
   337             03  cRP|[Xދ敪
   338                                       PIC  X(001).
   339             03  cRP|YȖڋ敪  PIC  X(001).
Pro*COBOL: Release 9.2.0.1.0 - Production on y Apr 9 12:48:31 2005

Copyright (c) 1982, 2002, Oracle Corporation.  All rights reserved.

   340             03  cRP|dv敪
   341                                       PIC  X(001).
   342             03  cRP|On    PIC S9(002)V9(008) PACKED-DECIMAL.
   343             03  cRP|gvIvV
   344                                       PIC  X(001).
   345             03  cRP|~敪  PIC  X(001).
   346             03  cRP|eύX\A
   347                                       PIC S9(002) PACKED-DECIMAL.
   348             03  cRP|p  PIC  X(001).
   349             03  cRP|p敪      PIC  X(001).
   350             03  cRP|敪  PIC  X(001).
   351             03  cRP|Pډ
   352                                       PIC  X(040).
   353             03  cRP|Qڈȍ~
   354                                       PIC  X(040).
   355             03  cRP|nt[X敪
   356                                       PIC  X(001).
   357             03  cRP|cTCg
   358                                       PIC S9(002)V9(002) PACKED-DECIMAL.
   359             03  cRP|敪  PIC  X(001).
   360             03  cRP|x    PIC S9(002) PACKED-DECIMAL.
   361             03  cRP|Q
   362                                       PIC  X(080).
   363             03  cRP|ԍ    PIC  X(006).
   364             03  cRP|      PIC  X(007).
   365             03  cRP|Mݒ  PIC  X(008).
   366             03  cRP|MI    PIC  X(008).
   367             03  cRP|敪
   368                                       PIC  X(001).
   369             03  cRP|\敪  PIC  X(001).
   370             03  cRP|    PIC  X(008).
   371             03  cRP|E敪  PIC  X(001).
   372             03  cRP|n֎~  PIC  X(001).
   373             03  cRP|_ԍ  PIC  X(016).
   374             03  cRP|ă[Xq
   375                                       PIC S9(004) PACKED-DECIMAL.
   376             03  cRP|ă[X
   377                                       PIC S9(004) PACKED-DECIMAL.
   378             03  cRP|cƃRgS
   379                                       PIC  X(080).
   380             03  cRP|VK敪    PIC  X(001).
   381             03  cRP|e敪    PIC  X(001).
   382             03  cRP|    PIC S9(002)V9(008) PACKED-DECIMAL.
   383             03  cRP|ʑOn
   384                                       PIC S9(002)V9(008) PACKED-DECIMAL.
   385             03  cRP|كN    PIC  X(001).
   386             03  cRP|󔭍stO
   387                                       PIC  X(001).
   388             03  cRP|ڍstO    PIC  X(001).
   389             03  cRP|ă[X\敪
   390                                       PIC  X(002).
   391             03  cRP|₢킹SXR[h
   392                                       PIC  X(004).
   393             03  cRP|₢킹SҖ
   394                                       PIC  X(020).
   395             03  cRP|ă[Xx\
   396                                       PIC  X(008).
   397             03  cRP|ʒm񓚊
   398                                       PIC  X(008).
   399             03  cRP|\敪      PIC  X(001).
   400             03  cRP|e\
   401                                       PIC S9(002) PACKED-DECIMAL.
Pro*COBOL: Release 9.2.0.1.0 - Production on y Apr 9 12:48:31 2005

Copyright (c) 1982, 2002, Oracle Corporation.  All rights reserved.

   402             03  cRP|e\σtO
   403                                       PIC  X(001).
   404             03  cRP|_񌏖o^敪
   405                                       PIC  X(001).
   406             03  cRP|ԍό      PIC  X(080).
   407             03  cRP|۔F敪  PIC  X(001).
   408             03  cRP|񗝗R      PIC  X(002).
   409             03  cRP|_R[h
   410                                       PIC  X(005).
t@C: Z:\COB97\COPYLIB_DB\D31KYK.CBLN[Y
    73  000730     EXEC  SQL  INCLUDE  D32SAK.CBL            END-EXEC.          
    74  000740*--<_ޓϊe[u>                                       
t@C: Z:\COB97\COPYLIB_DB\D32SAK.CBLI[v
     1        *****************************************************************
     2        *    (D32SAK_TBL)
     3        *****************************************************************
     4         01  .
     5             03  cRQ|_ԍ      PIC  X(010).
     6             03  cRQ|ă[X  PIC S9(002) PACKED-DECIMAL.
     7             03  cRQ|_      PIC  X(003).
     8             03  cRQ|_񌏖      PIC  X(040).
     9             03  cRQ|      PIC  X(060).
    10             03  cRQ|ϑ        PIC  X(001).
    11             03  cRQ|z  PIC S9(013) PACKED-DECIMAL.
    12             03  cRQ|ŋ敪
    13                                       PIC  X(002).
    14             03  cRQ|Ŋz  PIC S9(013) PACKED-DECIMAL.
    15             03  cRQ|_񑍊z  PIC S9(013) PACKED-DECIMAL.
    16             03  cRQ|őz
    17                                       PIC S9(013) PACKED-DECIMAL.
    18             03  cRQ|ŐVz  PIC S9(013) PACKED-DECIMAL.
    19             03  cRQ|ŐVŋ敪
    20                                       PIC  X(002).
    21             03  cRQ|ŐVŊz  PIC S9(013) PACKED-DECIMAL.
    22             03  cRQ|ŐV_񑍊z  PIC S9(013) PACKED-DECIMAL.
    23             03  cRQ|ŐVőz
    24                                       PIC S9(013) PACKED-DECIMAL.
    25             03  cRQ|ێ疳  PIC S9(003) PACKED-DECIMAL.
    26             03  cRQ|ԃtO    PIC  X(001).
    27             03  cRQ|tO    PIC  X(001).
    28             03  cRQ|N    PIC  X(008).
    29             03  cRQ|敪      PIC  X(001).
    30             03  cRQ|񗝗R      PIC  X(002).
    31             03  cRQ|      PIC S9(002) PACKED-DECIMAL.
    32             03  cRQ|ŐV
    33                                       PIC  X(008).
    34             03  cRQ|z        PIC S9(013) PACKED-DECIMAL.
    35             03  cRQ|ŉz  PIC S9(013) PACKED-DECIMAL.
    36             03  cRQ|ŐV    PIC  X(008).
    37             03  cRQ|Ǘx
    38                                       PIC  X(001).
    39             03  cRQ|z  PIC S9(013) PACKED-DECIMAL.
    40             03  cRQ|vz  PIC S9(013) PACKED-DECIMAL.
    41             03  cRQ|擾z      PIC S9(013) PACKED-DECIMAL.
    42             03  cRQ|kytO
    43                                       PIC  X(001).
    44             03  cRQ|񏈗N  PIC  X(006).
    45             03  cRQ|Gg
    46                                       PIC  X(008).
    47             03  cRQ|tO    PIC  X(001).
    48             03  cRQ|N    PIC  X(008).
    49             03  cRQ|\tO
Pro*COBOL: Release 9.2.0.1.0 - Production on y Apr 9 12:48:31 2005

Copyright (c) 1982, 2002, Oracle Corporation.  All rights reserved.

    50                                       PIC  X(001).
    51             03  cRQ|\    PIC  X(008).
    52             03  cRQ|ύXtO
    53                                       PIC  X(001).
    54             03  cRQ|ύX
    55                                       PIC S9(002) PACKED-DECIMAL.
    56             03  cRQ|ύX
    57                                       PIC  X(008).
    58             03  cRQ|O敪      PIC  X(001).
    59             03  cRQ|ă[X
    60                                       PIC S9(013) PACKED-DECIMAL.
    61             03  cRQ|ă[X敪
    62                                       PIC  X(001).
    63             03  cRQ|ێLtO
    64                                       PIC  X(001).
    65             03  cRQ|ă[X쐬tO
    66                                       PIC  X(001).
    67             03  cRQ|ă[X쐬N
    68                                       PIC  X(008).
    69             03  cRQ|XVN    PIC  X(008).
    70             03  cRQ|XV      PIC  X(008).
    71             03  cRQ|XV        PIC  X(008).
    72             03  cRQ|擾z    PIC S9(013) PACKED-DECIMAL.
    73             03  cRQ|擾z    PIC S9(013) PACKED-DECIMAL.
    74             03  cRQ|O      PIC S9(002) PACKED-DECIMAL.
    75             03  cRQ|ă[X
    76                                       PIC S9(013) PACKED-DECIMAL.
    77             03  cRQ|ă[Xŋ敪
    78                                       PIC  X(002).
    79             03  cRQ|      PIC S9(003) PACKED-DECIMAL.
    80             03  cRQ|    PIC S9(003) PACKED-DECIMAL.
    81             03  cRQ|Z_
    82                                       PIC  X(003).
    83             03  cRQ|ă[X敪
    84                                       PIC  X(001).
    85             03  cRQ|ă[X萔
    86                                       PIC S9(013) PACKED-DECIMAL.
    87             03  cRQ|UXgbv\N
    88                                       PIC  X(008).
    89             03  cRQ|UXgbv\
    90                                       PIC  X(004).
    91             03  cRQ|UXgbv\
    92                                       PIC  X(008).
    93             03  cRQ|UXgbvJnN
    94                                       PIC  X(006).
    95             03  cRQ|UXgbvIN
    96                                       PIC  X(006).
    97             03  cRQ|UXgbvR
    98                                       PIC  X(002).
    99             03  cRQ|UXgbvGg
   100                                       PIC  X(008).
   101             03  cRQ|Uʐ\N
   102                                       PIC  X(008).
   103             03  cRQ|Uʐ\
   104                                       PIC  X(004).
   105             03  cRQ|Uʐ\
   106                                       PIC  X(008).
   107             03  cRQ|UʐJnN
   108                                       PIC  X(006).
   109             03  cRQ|UʐIN
   110                                       PIC  X(006).
   111             03  cRQ|Uʐ\z
Pro*COBOL: Release 9.2.0.1.0 - Production on y Apr 9 12:48:31 2005

Copyright (c) 1982, 2002, Oracle Corporation.  All rights reserved.

   112                                       PIC S9(013) PACKED-DECIMAL.
   113             03  cRQ|UʃGg
   114                                       PIC  X(008).
   115             03  cRQ|xă[X
   116                                       PIC S9(013) PACKED-DECIMAL.
   117             03  cRQ|ϑێ敪  PIC  X(001).
   118             03  cRQ|ϑێ瑊z
   119                                       PIC S9(013) PACKED-DECIMAL.
   120             03  cRQ|͒S҃R[h
   121                                       PIC  X(008).
   122             03  cRQ|̑_ދ敪
   123                                       PIC  X(001).
   124             03  cRQ|R[h  PIC  X(009).
   125             03  cRQ|R[h  PIC  X(005).
   126             03  cRQ|evz      PIC S9(013) PACKED-DECIMAL.
   127             03  cRQ|evz|\  PIC S9(013) PACKED-DECIMAL.
   128             03  cRQ|`    PIC  X(008).
   129             03  cRQ|`      PIC S9(003) PACKED-DECIMAL.
   130             03  cRQ|Еz
   131                                       PIC S9(013) PACKED-DECIMAL.
   132             03  cRQ|Еz
   133                                       PIC S9(013) PACKED-DECIMAL.
   134             03  cRQ|Е_񑍊z
   135                                       PIC S9(013) PACKED-DECIMAL.
   136             03  cRQ|Еőz
   137                                       PIC S9(013) PACKED-DECIMAL.
   138             03  cRQ|Ѝwz    PIC S9(013) PACKED-DECIMAL.
   139             03  cRQ|cݒz    PIC S9(013) PACKED-DECIMAL.
   140             03  cRQ|Ўcݒz
   141                                       PIC S9(013) PACKED-DECIMAL.
   142             03  cRQ|Љz    PIC S9(013) PACKED-DECIMAL.
   143             03  cRQ|Љz
   144                                       PIC S9(013) PACKED-DECIMAL.
   145             03  cRQ|Њz
   146                                       PIC S9(013) PACKED-DECIMAL.
   147             03  cRQ|Њvz
   148                                       PIC S9(013) PACKED-DECIMAL.
   149             03  cRQ|ă[X萔z
   150                                       PIC S9(013) PACKED-DECIMAL.
   151             03  cRQ|ă[X萔
   152                                       PIC  X(008).
   153             03  cRQ|p萔  PIC S9(013) PACKED-DECIMAL.
   154             03  cRQ|ă[XЎcݒz
   155                                       PIC S9(013) PACKED-DECIMAL.
   156             03  cRQ|ă[XЎcݒz
   157                                       PIC S9(013) PACKED-DECIMAL.
   158             03  cRQ|z
   159                                       PIC S9(013) PACKED-DECIMAL.
   160             03  cRQ|vz
   161                                       PIC S9(013) PACKED-DECIMAL.
   162             03  cRQ|z
   163                                       PIC S9(013) PACKED-DECIMAL.
   164             03  cRQ|vz
   165                                       PIC S9(013) PACKED-DECIMAL.
   166             03  cRQ|pz
   167                                       PIC S9(013) PACKED-DECIMAL.
   168             03  cRQ|菈R[h
   169                                       PIC  X(002).
   170             03  cRQ|Œ|
   171                                       PIC S9(013) PACKED-DECIMAL.
   172             03  cRQ|菈R[h
   173                                       PIC  X(002).
Pro*COBOL: Release 9.2.0.1.0 - Production on y Apr 9 12:48:31 2005

Copyright (c) 1982, 2002, Oracle Corporation.  All rights reserved.

   174             03  cRQ|敪  PIC  X(001).
   175             03  cRQ|zz
   176                                       PIC S9(013) PACKED-DECIMAL.
   177             03  cRQ|Ŋzz
   178                                       PIC S9(013) PACKED-DECIMAL.
   179             03  cRQ|ŐVzz
   180                                       PIC S9(013) PACKED-DECIMAL.
   181             03  cRQ|ŐVŊzz
   182                                       PIC S9(013) PACKED-DECIMAL.
   183             03  cRQ|ŐV_񑍊zz
   184                                       PIC S9(013) PACKED-DECIMAL.
   185             03  cRQ|ŐVőzz
   186                                       PIC S9(013) PACKED-DECIMAL.
   187             03  cRQ|擾zz
   188                                       PIC S9(013) PACKED-DECIMAL.
   189             03  cRQ|擾zz
   190                                       PIC S9(013) PACKED-DECIMAL.
   191             03  cRQ|ă[Xz
   192                                       PIC S9(013) PACKED-DECIMAL.
   193             03  cRQ|ă[Xőz
   194                                       PIC S9(013) PACKED-DECIMAL.
   195             03  cRQ|cTCg
   196                                       PIC S9(002)V9(002) PACKED-DECIMAL.
   197             03  cRQ|XPO_񑍊z
   198                                       PIC S9(013) PACKED-DECIMAL.
   199             03  cRQ|Œ敪
   200                                       PIC  X(001).
   201             03  cRQ|o^N    PIC  X(008).
   202             03  cRQ|o^      PIC  X(008).
   203             03  cRQ|o^S    PIC  X(008).
   204             03  cRQ|UzύXR
   205                                       PIC  X(002).
   206             03  cRQ|Еă[X
   207                                       PIC S9(013) PACKED-DECIMAL.
   208             03  cRQ|Еă[X
   209                                       PIC S9(013) PACKED-DECIMAL.
   210             03  cRQ|ݒuꏊ敪  PIC S9(001) PACKED-DECIMAL.
   211             03  cRQ|_񑍊zz
   212                                       PIC S9(013) PACKED-DECIMAL.
   213             03  cRQ|őzz
   214                                       PIC S9(013) PACKED-DECIMAL.
   215             03  cRQ|Ѝwz    PIC S9(013) PACKED-DECIMAL.
   216             03  cRQ|Ўcݒz
   217                                       PIC S9(013) PACKED-DECIMAL.
   218             03  cRQ|Ќ{z  PIC S9(013) PACKED-DECIMAL.
   219             03  cRQ|Д㗘z
   220                                       PIC S9(013) PACKED-DECIMAL.
   221             03  cRQ|Зz  PIC S9(013) PACKED-DECIMAL.
   222             03  cRQ|Џpz
   223                                       PIC S9(013) PACKED-DECIMAL.
   224             03  cRQ|ЌŒ莑Yőz
   225                                       PIC S9(013) PACKED-DECIMAL.
   226             03  cRQ|Гیz
   227                                       PIC S9(013) PACKED-DECIMAL.
   228             03  cRQ|Јϑێ痿z
   229                                       PIC S9(013) PACKED-DECIMAL.
   230             03  cRQ|Ђ̑pz
   231                                       PIC S9(013) PACKED-DECIMAL.
   232             03  cRQ|ЕxpKpv
   233                                       PIC S9(013) PACKED-DECIMAL.
   234             03  cRQ|Еxpʍv
   235                                       PIC S9(013) PACKED-DECIMAL.
Pro*COBOL: Release 9.2.0.1.0 - Production on y Apr 9 12:48:31 2005

Copyright (c) 1982, 2002, Oracle Corporation.  All rights reserved.

   236             03  cRQ|{z      PIC S9(013) PACKED-DECIMAL.
   237             03  cRQ|z      PIC S9(013) PACKED-DECIMAL.
   238             03  cRQ|pz    PIC S9(013) PACKED-DECIMAL.
t@C: Z:\COB97\COPYLIB_DB\D32SAK.CBLN[Y
    75  000750     EXEC  SQL  INCLUDE  IKOTBL002.CBL         END-EXEC.          
    76  000760*--<ϊe[u>                                                 
t@C: Z:\COB97\COPYLIB_DB\IKOTBL002.CBLI[v
     1  000010************************************************
     2  000020* _ޓϊe[u(IKOTBL002)
     3  000030************************************************
     4  000040 01  hjnOOQ|_mn PIC  X(009).
     5  000050 01  hjnOOQ|ă[XR[h PIC S9(001) COMP-3.
     6  000060 01  hjnOOQ|菈R[h PIC S9(002) COMP-3.
     7  000070 01  hjnOOQ|菈R[h PIC S9(002) COMP-3.
     8  000080 01  hjnOOQ|ă[X PIC S9(002) COMP-3.
     9  000090 01  hjnOOQ|菈R[h PIC S9(002) COMP-3.
    10  000100 01  hjnOOQ|菈R[h PIC S9(002) COMP-3.
    11  000110 01  hjnOOQ|_ PIC  X(003).
    12  000120 01  hjnOOQ|_敪 PIC  X(001).
    13  000130 01  hjnOOQ|菇 PIC  X(001).
t@C: Z:\COB97\COPYLIB_DB\IKOTBL002.CBLN[Y
    77  000770     EXEC  SQL  INCLUDE  IKOTBL001.CBL         END-EXEC.          
    78  000780                                                                  
t@C: Z:\COB97\COPYLIB_DB\IKOTBL001.CBLI[v
     1  000010************************************************
     2  000020* ϊe[u(IKOTBL001)
     3  000030************************************************
     4  000040 01  hjnOOP|R[h PIC  X(008).
     5  000050 01  hjnOOP|ړIbc PIC  X(001).
     6  000060 01  hjnOOP|VR[h PIC  X(007).
     7  000070 01  hjnOOP|} PIC  X(003).
     8  000080 01  hjnOOP|^MR[h PIC  X(007).
     9  000090 01  hjnOOP|񂹃R[h PIC  X(008).
    10  000100 01  hjnOOP|[UR[h PIC  X(008).
    11  000110 01  hjnOOP|ʂbc PIC  X(001).
t@C: Z:\COB97\COPYLIB_DB\IKOTBL001.CBLN[Y
    79  000790     EXEC  SQL  END  DECLARE          SECTION  END-EXEC.          
    80  000800*                                                                 
    81  000810*----------------------------------------------------------------*
    82  000820*    vnqjGA                                              *
    83  000830*----------------------------------------------------------------*
    84  000840 01  vnqj|GA.                                            
    85  000850*--< G[p >                                               
    86  000860     03  v|G[R[h             PIC S9(04).                 
    87  000870     03  v|                     PIC X(02).                  
    88  000880     03  v|Ǘ^M           PIC X(01).                  
    89  000890*                                                                 
    90  000900*--< tOAA >                                               
    91  000910     03  tOAA.                                            
    92  000920         05  v|I|tO         PIC  X(01).                 
    93  000930         05  v|ُI|tO     PIC  X(01).                 
    94  000940*                                                                 
    95  000950*--< GA >                                                 
    96  000960     03  GA.                                              
    97  000970         05  v|^M{́|   PIC  9(09).                 
    98  000980         05  v|^Mד́|   PIC  9(09).                 
    99  000990         05  v|_é|   PIC  9(09).                 
   100  001000         05  v|́|       PIC  9(09).                 
   101  001010         05  v|ó|           PIC  9(09).                 
   102  001020                                                                  
   103  001030*                                                                 
   104  001040*--<ŗ >                                                    
Pro*COBOL: Release 9.2.0.1.0 - Production on y Apr 9 12:48:31 2005

Copyright (c) 1982, 2002, Oracle Corporation.  All rights reserved.

   105  001050     03 v|ŗ                  PIC  9V99.                  
   106  001060                                                                  
   107  001070*                                                                 
   108  001080*--< ʏ >                                                   
   109  001090 01  v|ʏ.                                                
   110  001100     03  v|VXet.                                        
   111  001110         05  v|I                 PIC  X(02) VALUE  "20".     
   112  001120         05  v|N               PIC  X(06).                 
   113  001130     03  v|VXe             PIC  X(08).                 
   114  001140     03  v|S                   PIC  X(08) VALUE "IKOPG   ".
   115  001150*                                                                 
   116  001160*                                                                 
   117  001170*----------------------------------------------------------------*
   118  001180*    Tu[`                                              *
   119  001190*----------------------------------------------------------------*
   120  001200 01  CALL-AREA.                                                   
   121  001210*--< ʃOTu[` >                                       
   122  001220     03  CLOCO001                     PIC  X(08) VALUE "CLOCO001".
   123  001230     03  COBCO001                     PIC  X(08) VALUE "COBCO001".
   124  001240*                                                                 
   125  001250*----------------------------------------------------------------*
   126  001260*    bnoẍ                                                *
   127  001270*----------------------------------------------------------------*
   128  001280*--< ʃOpp[^ >                                       
   129  001290 01  IF-CHOCO001.                                                 
   130  001300     COPY  CHOCO001  REPLACING  ==()==  BY  ==P|==.           
   131  001310*                                                                 
   132  001320*----------------------------------------------------------------*
   133  001330*    hmht@CǍTu[`pp^̈                *
   134  001340*----------------------------------------------------------------*
   135  001350 01  PARA-AREA.                                                   
   136  001360     COPY CPBCO001.                                               
   137  001370******************************************************************
   138  001380*    萔pf[^`GA                                      *
   139  001390******************************************************************
   140  001400 CONSTANT                             SECTION.                    
   141  001410 01  萔̈.                                                    
   142  001420     03  萔|vOhc         PIC  X(08) VALUE "COBIS660".
   143  001430     03  萔|vO           PIC  X(80)                  
   144  001440                             VALUE  "Ǘ^M_ڍs".       
   145  001450     03  萔|rpknj             PIC S9(04)  VALUE  ZERO.    
   146  001460     03  萔|rpkdmc           PIC S9(04)  VALUE  0100.    
   147  001470     03  萔|               PIC S9(04)  VALUE  ZERO.    
   148  001480     03  萔|ُ               PIC S9(04)  VALUE  0009.    
   149  001490                                                                  
   150  001500******************************************************************
   151  001510*    oqnbdctqd            chuhrhnm              *
   152  001520******************************************************************
   153  001530 PROCEDURE                            DIVISION.                   
   154  001540*                                                                 
   155  001550     PERFORM  .                                           
   156  001560*                                                                 
   157  001570     PERFORM  又  UNTIL  v|I|tO  =  "Y".            
   158  001580*                                                                 
   159  001590     PERFORM  I.                                           
   160  001600*                                                                 
   161  001610     STOP     RUN.                                                
   162  001620*                                                                 
   163  001630******************************************************************
   164  001640*                                                        *
   165  001650******************************************************************
   166  001660                              SECTION.                    
Pro*COBOL: Release 9.2.0.1.0 - Production on y Apr 9 12:48:31 2005

Copyright (c) 1982, 2002, Oracle Corporation.  All rights reserved.

   167  001670 |rs`qs.                                            
   168  001680*                                                                 
   169  001690*----------------------------------------------------------------*
   170  001700*    JnbZ[Wo͏                                      *
   171  001710*----------------------------------------------------------------*
   172  001720     INITIALIZE                       IF-CHOCO001.                
   173  001730     MOVE  "3"                        TO  P|Cxg.     
   174  001740     MOVE  萔|vOhc       TO  P|\[Xhc.       
   175  001750     MOVE  "0"                        TO  P|AR[h.       
   176  001760     MOVE  "START"                    TO  P|.         
   177  001770     MOVE  萔|vO         TO  P|̑bZ[W. 
   178  001780     CALL  CLOCO001                USING  IF-CHOCO001.            
   179  001790*                                                                 
   180  001800*----------------------------------------------------------------*
   181  001810*    Ɨ̈̏l                                        *
   182  001820*----------------------------------------------------------------*
   183  001830     MOVE                SPACE        TO  vnqj|GA.       
   184  001840     INITIALIZE                           vnqj|GA.       
   185  001850*                                                                 
   186  001860*--< bott擾 >                                           
   187  001870     ACCEPT  v|N               FROM  DATE.                 
   188  001880*                                                                 
   189  001890*--< bot擾 >                                           
   190  001900     ACCEPT  v|VXe         FROM  TIME.                 
   191  001910*                                                                 
   192  001920*--< nq`bkdڑ >                                           
   193  001930     PERFORM   nq`bkdڑ.                                  
   194  001940*                                                                 
   195  001950*--< e[uJ[\錾 >                                   
   196  001960     PERFORM  e[uJ[\錾.                           
   197  001970*                                                                 
   198  001980*--<t@CI[v>                                             
   199  001990     PERFORM  t@CI[v.                                   
   200  002000*--<e[uJ[\Ǎ>                                     
   201  002010     PERFORM   e[uJ[\Ǎ.                          
   202  002020*                                                                 
   203  002030 |dwhs.                                              
   204  002040     EXIT.                                                        
   205  002050******************************************************************
   206  002060*    nq`bkdڑ                                            *
   207  002070******************************************************************
   208  002080 nq`bkdڑ                     SECTION.                    
   209  002090 nq`bkdڑ|rs`qs.                                    
   210  002100*                                                                 
   211  002110*--< caڑp擾 >                                   
   212  002120     CALL  COBCO001                USING  PARA-AREA.              
   213  002130*                                                                 
   214  002140     MOVE  PARA-DBSTRING              TO  DB-STRING.              
   215  002150     MOVE  PARA-USERNAME              TO  USERNAME.               
   216  002160     MOVE  PARA-PASSWORD              TO  PASSWD.                 
   217  002170*                                                                 
   218  002180*----------------------------------------------------------------*
   219  002190*    Jnڑ                                                    *
   220  002200*----------------------------------------------------------------*
   221  002210     IF    DB-STRING  =  SPACE                                    
   222  002220        EXEC SQL                                                  
   223  002230           CONNECT  :USERNAME IDENTIFIED BY :PASSWD               
   224  002240        END-EXEC                                                  
   225  002250     ELSE                                                         
   226  002260        EXEC SQL                                                  
   227  002270           CONNECT  :USERNAME IDENTIFIED BY :PASSWD               
   228  002280             USING  :DB-STRING                                    
Pro*COBOL: Release 9.2.0.1.0 - Production on y Apr 9 12:48:31 2005

Copyright (c) 1982, 2002, Oracle Corporation.  All rights reserved.

   229  002290        END-EXEC                                                  
   230  002300     END-IF.                                                      
   231  002310*                                                                 
   232  002320*----------------------------------------------------------------*
   233  002330*    ڑmF                                                    *
   234  002340*----------------------------------------------------------------*
   235  002350     EVALUATE  SQLCODE                                            
   236  002360        WHEN   萔|rpknj                                   
   237  002370           CONTINUE                                               
   238  002380        WHEN   OTHER                                              
   239  002390*--<       ڑG[ >                                           
   240  002400           MOVE     -10               TO  v|G[R[h        
   241  002410           PERFORM  G[菈                                
   242  002420     END-EVALUATE.                                                
   243  002430*                                                                 
   244  002440 nq`bkdڑ|dwhs.                                      
   245  002450******************************************************************
   246  002460*        e[uJ[\`                                *
   247  002470******************************************************************
   248  002480 e[uJ[\錾             SECTION.                    
   249  002490 e[uJ[\錾|rs`qs.                            
   250  002500*                                                                 
   251  002510*----------------------------------------------------------------*
   252  002520*    J[\nodm                                        *
   253  002530*----------------------------------------------------------------*
   254  002540     EXEC SQL                                                     
   255  002550        DECLARE  CUR1  CURSOR FOR                                 
   256  002560           SELECT   NVL(YOSHINKIHON.Ǘ^MR[h,             
   257  002570                                           RPAD(' ',8,' ')),      
   258  002580                    YOSHINMEISAI._mn,                        
   259  002590                    YOSHINMEISAI.R[h,                      
   260  002600                    YOSHINMEISAI.ƏR[h,                    
   261  002610                    YOSHINMEISAI.̓,                          
   262  002620                    YOSHINMEISAI._,                          
   263  002630                    YOSHINMEISAI.,                          
   264  002640                    YOSHINMEISAI.,                          
   265  002650                    YOSHINMEISAI.c,                        
   266  002660                    YOSHINMEISAI.ݕtʌ,                      
   267  002670                    YOSHINMEISAI.ғY,                      
   268  002680                    YOSHINMEISAI.i,                          
   269  002690                    YOSHINMEISAI.Mpیtۋ敪,                
   270  002700                    YOSHINMEISAI.Mpی,                    
   271  002710                    YOSHINMEISAI._z,                        
   272  002720                    YOSHINMEISAI.,                          
   273  002730                    YOSHINMEISAI.Jn,                        
   274  002740                    YOSHINMEISAI.׎x,                    
   275  002750                    YOSHINMEISAI.vZ,                        
   276  002760                    YOSHINMEISAI.TCN,                    
   277  002770                    YOSHINMEISAI.؊Jn,                      
   278  002780                    YOSHINMEISAI.tOP,                  
   279  002790                    YOSHINMEISAI.tOQ,                  
   280  002800                    YOSHINMEISAI.Nx敪,                    
   281  002810                    YOSHINMEISAI.cz,                          
   282  002820                    YOSHINMEISAI.k,                        
   283  002830                    YOSHINMEISAI.̍c,                      
   284  002840                    YOSHINMEISAI.̌{c,                      
   285  002850                    YOSHINMEISAI.c,                        
   286  002860                    YOSHINMEISAI.{c,                        
   287  002870                    YOSHINMEISAI.{,                        
   288  002880                    YOSHINMEISAI.,                        
   289  002890                    YOSHINMEISAI.,                        
   290  002900                    YOSHINMEISAI.a,                      
Pro*COBOL: Release 9.2.0.1.0 - Production on y Apr 9 12:48:31 2005

Copyright (c) 1982, 2002, Oracle Corporation.  All rights reserved.

   291  002910                    YOSHINMEISAI.pz,                        
   292  002920                    YOSHINMEISAI.Œ藘,                        
   293  002930                    YOSHINMEISAI.ϓ敪,                    
   294  002940                    YOSHINMEISAI.Xvbh,                      
   295  002950                    YOSHINMEISAI.A敪,                    
   296  002960                    NVL(YOSHINKIHON.敪, RPAD(' ',1,' ')),   
   297  002970                    YOSHINMEISAI.XVt                         
   298  002980              FROM  YOSHINMEISAI,YOSHINKIHON                      
   299  002990             WHERE  YOSHINMEISAI.Ǘ^MR[h =               
   300  003000                                 YOSHINKIHON.Ǘ^MR[h( + )
   301  003010               AND  YOSHINMEISAI.Ǘ^M敪 =                   
   302  003020                                 YOSHINKIHON.Ǘ^M敪( + )    
   303  003030               AND  YOSHINMEISAI.^M敪 =                   
   304  003040                                 YOSHINKIHON.^M敪( + )  
   305  003050               AND  YOSHINMEISAI.̓ = YOSHINKIHON.̓( + ) 
   306  003060                                                                  
   307  003070     END-EXEC.                                                    
   308  003080*                                                                 
   309  003090*----------------------------------------------------------------*
   310  003100*    J[\nodm                                        *
   311  003110*----------------------------------------------------------------*
   312  003120     EXEC SQL                                                     
   313  003130        OPEN  CUR1                                                
   314  003140     END-EXEC.                                                    
   315  003150*                                                                 
   316  003160*----------------------------------------------------------------*
   317  003170*    J[\nodmmF                                        *
   318  003180*----------------------------------------------------------------*
   319  003190     EVALUATE  SQLCODE                                            
   320  003200        WHEN  萔|rpknj                                    
   321  003210*--<        >                                                 
   322  003220           CONTINUE                                               
   323  003230        WHEN  OTHER                                               
   324  003240*--<       J[\nodmG[ >                               
   325  003250           MOVE -20                  TO  v|G[R[h         
   326  003260           PERFORM  G[菈                                
   327  003270     END-EVALUATE.                                                
   328  003280*                                                                 
   329  003290 e[uJ[\錾|dwhs.                              
   330  003300     EXIT.                                                        
   331  003310* *************************************************************** 
   332  003320*                   t@CI[v.                           * 
   333  003330***************************************************************** 
   334  003340 t@CI[v                     SECTION.                    
   335  003350 t@CI[v|rs`qs.                                    
   336  003360     OPEN  OUTPUT  oJt@C.                                  
   337  003370*----------------------------------------------------------------*
   338  003380*   t@CI[vnodmmF                                 *
   339  003390*----------------------------------------------------------------*
   340  003400     EVALUATE   v|                                          
   341  003410        WHEN  ZERO                                                
   342  003420*--<        >                                                 
   343  003430           CONTINUE                                               
   344  003440        WHEN  OTHER                                               
   345  003450*--<       J[\nodmG[ >                               
   346  003460           MOVE          -30          TO  v|G[R[h        
   347  003470           PERFORM  G[菈                                
   348  003480     END-EVALUATE.                                                
   349  003490 t@CI[v|dwhs.                                      
   350  003500     EXIT.                                                        
   351  003510******************************************************************
   352  003520*    e[uJ[\Ǎ                                    *
Pro*COBOL: Release 9.2.0.1.0 - Production on y Apr 9 12:48:31 2005

Copyright (c) 1982, 2002, Oracle Corporation.  All rights reserved.

   353  003530******************************************************************
   354  003540 e[uJ[\Ǎ             SECTION.                    
   355  003550 e[uJ[\Ǎ|rs`qs.                            
   356  003560*                                                                 
   357  003570*--< e[uJ[\Ǎ >                                   
   358  003580     EXEC SQL                                                     
   359  003590         FETCH  CUR1                                              
   360  003600          INTO :xnrghmjhgnm|Ǘ^MR[h,         
   361  003610               :xnrghmldhr`h|_mn,               
   362  003620               :xnrghmldhr`h|R[h,             
   363  003630               :xnrghmldhr`h|ƏR[h,           
   364  003640               :xnrghmldhr`h|̓,                 
   365  003650               :xnrghmldhr`h|_,                 
   366  003660               :xnrghmldhr`h|,                 
   367  003670               :xnrghmldhr`h|,                 
   368  003680               :xnrghmldhr`h|c,               
   369  003690               :xnrghmldhr`h|ݕtʌ,             
   370  003700               :xnrghmldhr`h|ғY,             
   371  003710               :xnrghmldhr`h|i,                 
   372  003720               :xnrghmldhr`h|Mpیtۋ敪,       
   373  003730               :xnrghmldhr`h|Mpی,           
   374  003740               :xnrghmldhr`h|_z,               
   375  003750               :xnrghmldhr`h|,                 
   376  003760               :xnrghmldhr`h|Jn,               
   377  003770               :xnrghmldhr`h|׎x,           
   378  003780               :xnrghmldhr`h|vZ,               
   379  003790               :xnrghmldhr`h|TCN,           
   380  003800               :xnrghmldhr`h|؊Jn,             
   381  003810               :xnrghmldhr`h|tOP,         
   382  003820               :xnrghmldhr`h|tOQ,         
   383  003830               :xnrghmldhr`h|cz,                 
   384  003840               :xnrghmldhr`h|k,               
   385  003850               :xnrghmldhr`h|Nx敪,           
   386  003860               :xnrghmldhr`h|̍c,             
   387  003870               :xnrghmldhr`h|̌{c,             
   388  003880               :xnrghmldhr`h|c,               
   389  003890               :xnrghmldhr`h|{c,               
   390  003900               :xnrghmldhr`h|{,               
   391  003910               :xnrghmldhr`h|,               
   392  003920               :xnrghmldhr`h|,               
   393  003930               :xnrghmldhr`h|a,             
   394  003940               :xnrghmldhr`h|pz,               
   395  003950               :xnrghmldhr`h|Œ藘,               
   396  003960               :xnrghmldhr`h|ϓ敪,           
   397  003970               :xnrghmldhr`h|Xvbh,             
   398  003980               :xnrghmldhr`h|A敪,           
   399  003990               :xnrghmjhgnm|敪,                 
   400  004000               :xnrghmldhr`h|XVt                
   401  004010     END-EXEC.                                                    
   402  004020                                                                  
   403  004030                                                                  
   404  004040*----------------------------------------------------------------*
   405  004050*    e[uJ[\ǍmF                              *
   406  004060*----------------------------------------------------------------*
   407  004070     EVALUATE   SQLCODE                                           
   408  004080        WHEN   萔|rpknj                                   
   409  004090*--<        >                                                 
   410  004100               COMPUTE v|^M{́| =                   
   411  004110                               v|^M{́| + 1         
   412  004120               COMPUTE v|^Mד́| =                   
   413  004130                               v|^Mד́| + 1         
   414  004140        WHEN   萔|rpkdmc                                 
Pro*COBOL: Release 9.2.0.1.0 - Production on y Apr 9 12:48:31 2005

Copyright (c) 1982, 2002, Oracle Corporation.  All rights reserved.

   415  004150*--<       ǍI >                                             
   416  004160           MOVE  "Y"                  TO  v|I|tO        
   417  004170        WHEN   OTHER                                              
   418  004180*--<       ǍG[ >                                           
   419  004190           MOVE     -40               TO  v|G[R[h        
   420  004200           PERFORM  G[菈                                
   421  004210     END-EVALUATE.                                                
   422  004220*                                                                 
   423  004230 e[uJ[\Ǎ|dwhs.                              
   424  004240     EXIT.                                                        
   425  004250******************************************************************
   426  004260*    又                                                      *
   427  004270******************************************************************
   428  004280 又                               SECTION.                    
   429  004290 又|rs`qs.                                              
   430  004300*--<^MǗR[h>                                         
   431  004310     PERFORM  ^MǗR[h.                               
   432  004320*                                                                 
   433  004330*--<v|Ǘ^M  = 'N'e[uJ[\Ǎ>            
   434  004340     IF  v|Ǘ^M  = 'N'                                
   435  004350         PERFORM  e[uJ[\Ǎ.                       
   436  004360*                                                                 
   437  004370*--<ă[X񐔏>                                             
   438  004380     PERFORM  ă[X񐔏.                                   
   439  004390                                                                  
   440  004400*--<_ގ_敪>                                       
   441  004410     PERFORM  _ގ_敪.                             
   442  004420                                                                  
   443  004430*--<_R[h>                                             
   444  004440     PERFORM  _R[h.                                   
   445  004450                                                                  
   446  004460*--<_e>                                                 
   447  004470     PERFORM  _e.                                       
   448  004480                                                                  
   449  004490*--<v|ŗ>                                             
   450  004500     PERFORM  v|ŗ.                                   
   451  004510                                                                  
   452  004520*--<Mpی敪>                                             
   453  004530     PERFORM  Mpی敪.                                   
   454  004540                                                                  
   455  004550*--<vZ>                                                 
   456  004560     PERFORM  vZ.                                       
   457  004570                                                                  
   458  004580*--<o͕ҏW>                                                     
   459  004590     PERFORM  o͕ҏW.                                           
   460  004600                                                                  
   461  004610*--<o͏>                                                     
   462  004620     PERFORM  o͏.                                           
   463  004630                                                                  
   464  004640*--<e[uǍiQڈȍ~j>                               
   465  004650     PERFORM   e[uǍQڈȍ~.                        
   466  004660*                                                                 
   467  004670 又|dwhs.                                                
   468  004680     EXIT.                                                        
   469  004690                                                                  
   470  004700******************************************************************
   471  004710*    ^MǗR[h                                        *
   472  004720***************************************************************** 
   473  004730 ^MǗR[h                        SECTION.             
   474  004740 ^MǗR[h|rs`qs.                                
   475  004750     PERFORM  Ǘ^MR[h.                               
   476  004760                                                                  
Pro*COBOL: Release 9.2.0.1.0 - Production on y Apr 9 12:48:31 2005

Copyright (c) 1982, 2002, Oracle Corporation.  All rights reserved.

   477  004770 ^MǗR[h|dwhs.                                  
   478  004780     EXIT.                                                        
   479  004790******************************************************************
   480  004800* Ǘ^MR[h.                                 NO.1     *
   481  004810****************************************************************  
   482  004820 Ǘ^MR[h                   SECTION.                  
   483  004830 Ǘ^MR[h|rs`qs.                                
   484  004840        MOVE   xnrghmjhgnm|Ǘ^MR[h           
   485  004850                                  TO           vr|Ǘ^M.  
   486  004860      EVALUATE  xnrghmjhgnm|Ǘ^MR[h          
   487  004870         WHEN   '02683250'                                        
   488  004880                MOVE  '02683233'  TO                              
   489  004890                    xnrghmjhgnm|Ǘ^MR[h      
   490  004900         WHEN   'T2677944'                                        
   491  004910                MOVE  'T2672500'  TO                              
   492  004920                    xnrghmjhgnm|Ǘ^MR[h      
   493  004930         WHEN   'S1519455'                                        
   494  004940                MOVE  'S1519684'  TO                              
   495  004950                    xnrghmjhgnm|Ǘ^MR[h      
   496  004960         WHEN   OTHER                                             
   497  004970*--<ϊe[u        >                                     
   498  004980                PERFORM  ϊe[u                         
   499  004990      END-EVALUATE.                                               
   500  005000 Ǘ^MR[h|dwhs.                                  
   501  005010     EXIT.                                                        
   502  005020******************************************************************
   503  005030* ϊe[u.                                              *
   504  005040****************************************************************  
   505  005050 ϊe[u                       SECTION.                  
   506  005060 ϊe[u|rs`qs.                                    
   507  005070       EXEC SQL                                                   
   508  005080         SELECT  VR[h,                                  
   509  005090                 R[h                                     
   510  005100          INTO   :xnrghmjhgnm|Ǘ^MR[h,       
   511  005110                 :hjnOOP|R[h                      
   512  005120          FROM   IKOTBL001                                        
   513  005130          WHERE  R[h =                                   
   514  005140                       :xnrghmjhgnm|Ǘ^MR[h  
   515  005150           AND   ړIbc = '2'                                   
   516  005160                                                                  
   517  005170      END-EXEC.                                                   
   518  005180*----------------------------------------------------------------*
   519  005190*   ϊe[u                                              
   520  005200*---------------------------------------------------------------- 
   521  005210     EVALUATE  SQLCODE                                            
   522  005220        WHEN  萔|rpknj                                    
   523  005230*--<        >                                                 
   524  005240           CONTINUE                                               
   525  005250        WHEN  OTHER                                               
   526  005260*--<       J[\nodmG[ >                               
   527  005270           DISPLAY  "MR[hƖړIbc\"                  
   528  005280           DISPLAY hjnOOP|R[h, "="                
   529  005290                   xnrghmjhgnm|Ǘ^MR[h,      
   530  005300                   "ړIbc = '2'"                               
   531  005310           MOVE    'N'       TO         v|Ǘ^M        
   532  005320     END-EVALUATE.                                                
   533  005330 ϊe[u|dwhs.                                      
   534  005340     EXIT.                                                        
   535  005350******************************************************************
   536  005360* ă[X񐔏                                        NO.3   *
   537  005370***************************************************************** 
   538  005380 ă[X񐔏                     SECTION.                    
Pro*COBOL: Release 9.2.0.1.0 - Production on y Apr 9 12:48:31 2005

Copyright (c) 1982, 2002, Oracle Corporation.  All rights reserved.

   539  005390 ă[X񐔏|rs`qs.                                    
   540  005400     EXEC SQL                                                     
   541  005410      SELECT   MAX(ă[X)                                  
   542  005420        INTO  :hjnOOQ|ă[X                         
   543  005430        FROM  IKOTBL002                                           
   544  005440       WHERE   _mn = :xnrghmldhr`h|_mn     
   545  005450        AND   菈R[h =                              
   546  005460                           :xnrghmldhr`h|R[h  
   547  005470     END-EXEC.                                                    
   548  005480*----------------------------------------------------------------*
   549  005490*   ă[X񐔏                                             *
   550  005500*---------------------------------------------------------------- 
   551  005510     EVALUATE  SQLCODE                                            
   552  005520        WHEN  萔|rpknj                                    
   553  005530*--<        >                                                 
   554  005540           CONTINUE                                               
   555  005550        WHEN  OTHER                                               
   556  005560*--<       J[\nodmG[ >                               
   557  005570           MOVE       -60           TO    v|G[R[h        
   558  005580           PERFORM  G[菈                                
   559  005590           MOVE       ZERO          TO    oJ[ă[X      
   560  005600     END-EVALUATE.                                                
   561  005610 ă[X񐔏|dwhs.                                      
   562  005620     EXIT.                                                        
   563  005630                                                                  
   564  005640******************************************************************
   565  005650*         _ގ_敪                        NO.4 NO.7*
   566  005660***************************************************************** 
   567  005670 _ގ_敪                 SECTION.                  
   568  005680 _ގ_敪|rs`qs.                              
   569  005690     EXEC SQL                                                     
   570  005700      SELECT   MIN( _ ),                                   
   571  005710               _敪                                         
   572  005720        INTO  :hjnOOQ|_,                            
   573  005730              :hjnOOQ|_敪                           
   574  005740        FROM  IKOTBL002                                           
   575  005750       WHERE  ă[X = :hjnOOQ|ă[X          
   576  005760       GROUP BY  _敪                                       
   577  005770     END-EXEC.                                                    
   578  005780                                                                  
   579  005790*---------------------------------------------------------------- 
   580  005800*   _ގ_敪                                  *     
   581  005810*---------------------------------------------------------------- 
   582  005820     EVALUATE  SQLCODE                                            
   583  005830        WHEN  萔|rpknj                                    
   584  005840*--<        >                                                 
   585  005850           CONTINUE                                               
   586  005860        WHEN  OTHER                                               
   587  005870*--<       J[\nodmG[ >                               
   588  005880           MOVE       -70           TO    v|G[R[h        
   589  005890           PERFORM  G[菈                                
   590  005900           MOVE       ZERO          TO   hjnOOQ|_   
   591  005910           MOVE       ZERO          TO   hjnOOQ|_   
   592  005920     END-EVALUATE.                                                
   593  005930 _ގ_敪|dwhs.                                
   594  005940     EXIT.                                                        
   595  005950******************************************************************
   596  005960*        _R[h                       NO.8*            *
   597  005970******************************************************************
   598  005980 _R[h                       SECTION.                  
   599  005990 _R[h|rs`qs.                                    
   600  006000       EXEC SQL                                                   
Pro*COBOL: Release 9.2.0.1.0 - Production on y Apr 9 12:48:31 2005

Copyright (c) 1982, 2002, Oracle Corporation.  All rights reserved.

   601  006010         SELECT  }                                             
   602  006020          INTO   :hjnOOP|}                              
   603  006030          FROM   IKOTBL001                                        
   604  006040          WHERE  R[h = :vr|Ǘ^M                 
   605  006050           AND   ړIbc = '2'                                   
   606  006060                                                                  
   607  006070      END-EXEC.                                                   
   608  006080                                                                  
   609  006090*---------------------------------------------------------------- 
   610  006100*   _R[h                                              
   611  006110*---------------------------------------------------------------- 
   612  006120     EVALUATE  SQLCODE                                            
   613  006130        WHEN  萔|rpknj                                    
   614  006140*--<        >                                                 
   615  006150           CONTINUE                                               
   616  006160        WHEN  OTHER                                               
   617  006170*--<       J[\nodmG[ >                               
   618  006180           MOVE       -80           TO    v|G[R[h        
   619  006190           PERFORM  G[菈                                
   620  006200           MOVE       ZERO          TO   hjnOOP|}       
   621  006210     END-EVALUATE.                                                
   622  006220 _R[h|dwhs.                                      
   623  006230     EXIT.                                                        
   624  006240******************************************************************
   625  006250*        _e         NO.9  NO.66                            *
   626  006260******************************************************************
   627  006270 _e                       SECTION.                      
   628  006280 _e|rs`qs.                                        
   629  006290      EXEC SQL                                                    
   630  006300         SELECT  _񌏖,                                        
   631  006310                 ۔F敪                                         
   632  006320          INTO   :cRP|_񌏖,                               
   633  006330                 :cRP|۔F敪                                
   634  006340          FROM   D31KYK_TBL                                       
   635  006350          WHERE  _ԍ = :xnrghmldhr`h|_mn   
   636  006360           AND   ă[X = :hjnOOQ|ă[X       
   637  006370       END-EXEC.                                                  
   638  006380                                                                  
   639  006390*---------------------------------------------------------------- 
   640  006400*   _e                                                  
   641  006410*---------------------------------------------------------------- 
   642  006420     EVALUATE  SQLCODE                                            
   643  006430        WHEN  萔|rpknj                                    
   644  006440*--<        >                                                 
   645  006450           COMPUTE   v|_é|  =                    
   646  006460                              v|_é|   +   1      
   647  006470        WHEN  OTHER                                               
   648  006480*--<       J[\nodmG[ >                               
   649  006490           MOVE       -90           TO    v|G[R[h        
   650  006500           PERFORM  G[菈                                
   651  006510     END-EVALUATE.                                                
   652  006520 _e|dwhs.                                          
   653  006530     EXIT.                                                        
   654  006540                                                                  
   655  006550                                                                  
   656  006560******************************************************************
   657  006570*       v|ŗ                                         *
   658  006580******************************************************************
   659  006590 v|ŗ                       SECTION.                  
   660  006600 v|ŗ|rs`qs.                                    
   661  006610       EXEC SQL                                                   
   662  006620         SELECT  ŐVŋ敪                                   
Pro*COBOL: Release 9.2.0.1.0 - Production on y Apr 9 12:48:31 2005

Copyright (c) 1982, 2002, Oracle Corporation.  All rights reserved.

   663  006630          INTO   :cRQ|ŐVŋ敪                          
   664  006640          FROM   D32SAK_TBL                                       
   665  006650          WHERE  _ԍ = :xnrghmldhr`h|_mn   
   666  006660           AND   ă[X = :hjnOOQ|ă[X       
   667  006670           AND   _  = :hjnOOQ|_              
   668  006680                                                                  
   669  006690      END-EXEC.                                                   
   670  006700                                                                  
   671  006710*---------------------------------------------------------------- 
   672  006720*   v|ŗ                                              
   673  006730*---------------------------------------------------------------- 
   674  006740     EVALUATE  SQLCODE                                            
   675  006750        WHEN  萔|rpknj                                    
   676  006760*--<        >                                                 
   677  006770              COMPUTE   v|́|       =                
   678  006780                            v|́|      +   1         
   679  006790              EVALUATE  cRQ|ŐVŋ敪                    
   680  006800                 WHEN   '11'                                      
   681  006810                        MOVE   0.03   TO     v|ŗ         
   682  006820                 WHEN   '12'                                      
   683  006830                        MOVE   0.05   TO     v|ŗ         
   684  006840                 WHEN  OTHER                                      
   685  006850                        MOVE   0      TO     v|ŗ         
   686  006860              END-EVALUATE                                        
   687  006870        WHEN  OTHER                                               
   688  006880*--<       J[\nodmG[ >                               
   689  006890           MOVE       -100           TO    v|G[R[h       
   690  006900           MOVE       0.05           TO    v|ŗ           
   691  006910           PERFORM  G[菈                                
   692  006920     END-EVALUATE.                                                
   693  006930 v|ŗ|dwhs.                                      
   694  006940     EXIT.                                                        
   695  006950******************************************************************
   696  006960*       Mpی敪                             NO.23       *
   697  006970***************************************************************** 
   698  006980 Mpی敪                     SECTION.                    
   699  006990 Mpی敪|rs`qs.                                        
   700  007000       EVALUATE  xnrghmldhr`h|Mpیtۋ敪       
   701  007010        WHEN  '0'                                                 
   702  007020*--<        >                                                 
   703  007030              CONTINUE                                            
   704  007040        WHEN  OTHER                                               
   705  007050*--<       J[\nodmG[ >                               
   706  007060           MOVE          '1'         TO                           
   707  007070                       xnrghmldhr`h|Mpیtۋ敪 
   708  007080      END-EVALUATE.                                               
   709  007090 Mpی敪|dwhs.                                      
   710  007100     EXIT.                                                        
   711  007110******************************************************************
   712  007120*       vZ                             NO.29           *
   713  007130***************************************************************** 
   714  007140 vZ                         SECTION.                    
   715  007150 vZ|rs`qs.                                        
   716  007160       EVALUATE  xnrghmldhr`h|vZ               
   717  007170        WHEN  '0'                                                 
   718  007180*--<       '0' >                                                  
   719  007190               MOVE       '1'       TO                            
   720  007200                                xnrghmldhr`h|vZ
   721  007210        WHEN  '1'                                                 
   722  007220*--<       '1' >                                                  
   723  007230               EVALUATE   xnrghmldhr`h|TCN  
   724  007240                  WHEN   '012'                                    
Pro*COBOL: Release 9.2.0.1.0 - Production on y Apr 9 12:48:31 2005

Copyright (c) 1982, 2002, Oracle Corporation.  All rights reserved.

   725  007250                          MOVE     '0'       TO                   
   726  007260                            xnrghmldhr`h|TCN
   727  007270                  WHEN  OTHER                                     
   728  007280                          MOVE     '2'       TO                   
   729  007290                            xnrghmldhr`h|TCN
   730  007300               END-EVALUATE                                       
   731  007310          WHEN  '2'                                               
   732  007320*--<       '2' >                                                  
   733  007330                 CONTINUE                                         
   734  007340                                                                  
   735  007350      END-EVALUATE.                                               
   736  007360 vZ|dwhs.                                          
   737  007370     EXIT.                                                        
   738  007380******************************************************************
   739  007390*     o͕ҏW                                                       *
   740  007400***************************************************************** 
   741  007410 o͕ҏW                               SECTION.                  
   742  007420 o͕ҏW|rs`qs.                                            
   743  007430*NO.1                                                             
   744  007440       MOVE   xnrghmjhgnm|Ǘ^MR[h     TO     
   745  007450                                      oJ[^MǗR[h.     
   746  007460*N0.2                                                             
   747  007470       MOVE   xnrghmldhr`h|_mn           TO     
   748  007480                                      oJ[_ԍ.             
   749  007490*NO.3                                                             
   750  007500       MOVE   hjnOOQ|ă[X                   TO     
   751  007510                                      oJ[ă[X.         
   752  007520*NO.4                                                             
   753  007530       MOVE   hjnOOQ|_                       TO     
   754  007540                                      oJ[_.             
   755  007550*NO.5                                                             
   756  007560       MOVE   xnrghmldhr`h|R[h         TO     
   757  007570                                      oJ[菈R[h.       
   758  007580*N0.6                                                             
   759  007590       MOVE   xnrghmldhr`h|ƏR[h       TO     
   760  007600                                      oJ[ۃR[h.           
   761  007610*NO.7                                                             
   762  007620       MOVE   hjnOOQ|_敪                     TO     
   763  007630                                      oJ[_敪.           
   764  007640*NO.8                                                             
   765  007650       MOVE   hjnOOP|}                           TO     
   766  007660                                      oJ[_R[h.         
   767  007670*NO.9                                                             
   768  007680       MOVE   cRP|_񌏖                             TO     
   769  007690                                      oJ[_񌏖.             
   770  007700*NO.10                                                            
   771  007710       MOVE   xnrghmldhr`h|̓             TO     
   772  007720                                      oJ[N.           
   773  007730*NO.11                                                            
   774  007740       MOVE   xnrghmldhr`h|_             TO     
   775  007750                                      oJ[_N.           
   776  007760*NO.12                                                            
   777  007770       MOVE   xnrghmldhr`h|             TO     
   778  007780                                      oJ[N.           
   779  007790*NO.13                                                            
   780  007800       MOVE   xnrghmldhr`h|             TO     
   781  007810                                      oJ[N.           
   782  007820*NO.14                                                            
   783  007830       MOVE   xnrghmldhr`h|c           TO     
   784  007840                                      oJ[ΊOc.         
   785  007850*NO.15                                                            
   786  007860       COMPUTE   oJ[ΊOc  =  v|ŗ  *     
Pro*COBOL: Release 9.2.0.1.0 - Production on y Apr 9 12:48:31 2005

Copyright (c) 1982, 2002, Oracle Corporation.  All rights reserved.

   787  007870                              xnrghmldhr`h|c .
   788  007880*NO.16                                                            
   789  007890       MOVE            ZERO           TO        oJ[Oc. 
   790  007900*NO.17                                                            
   791  007910       MOVE            ZERO           TO   oJ[Oc.
   792  007920*NO.18                                                            
   793  007930       MOVE    xnrghmldhr`h|ݕtʌ       TO      
   794  007940                                      oJ[ݕtʌ.           
   795  007950*NO.19                                                            
   796  007960       COMPUTE  oJ[ݕtʌ  =   v|ŗ     *    
   797  007970                             xnrghmldhr`h|ݕtʌ.
   798  007980*NO.20                                                            
   799  007990       MOVE    xnrghmldhr`h|ғY,      TO      
   800  008000                                       oJ[ғY.          
   801  008010*NO.21                                                            
   802  008020       MOVE    xnrghmldhr`h|i           TO      
   803  008030                                       oJ[i.              
   804  008040*NO.22                                                            
   805  008050       MOVE            ZERO           TO           oJ[Sێc.
   806  008060*NO.23                                                            
   807  008070       MOVE    xnrghmldhr`h|Mpیtۋ敪 TO      
   808  008080                                       oJ[Mpی敪.        
   809  008090*NO.24                                                            
   810  008100       MOVE    xnrghmldhr`h|Mpی     TO      
   811  008110                                       oJ[Mpی.        
   812  008120*NO.25                                                            
   813  008130       MOVE    xnrghmldhr`h|_z         TO      
   814  008140                                       oJ[_z.            
   815  008150*NO.26                                                            
   816  008160       MOVE    xnrghmldhr`h|           TO      
   817  008170                                       oJ[.              
   818  008180*NO.27                                                            
   819  008190       MOVE    xnrghmldhr`h|Jn         TO      
   820  008200                                       oJ[Jn.            
   821  008210*NO.28                                                            
   822  008220       MOVE    xnrghmldhr`h|׎x     TO      
   823  008230                                       oJ[׎x.        
   824  008240*NO.29                                                            
   825  008250       MOVE    xnrghmldhr`h|vZ,        TO      
   826  008260                                       oJ[vZ.            
   827  008270*NO.30                                                            
   828  008280       MOVE    xnrghmldhr`h|TCN     TO      
   829  008290                                       oJ[TCN.        
   830  008300*NO.31                                                            
   831  008310       MOVE    xnrghmldhr`h|؊Jn       TO      
   832  008320                                       oJ[؊JnN.      
   833  008330*NO.32                                                            
   834  008340       MOVE    xnrghmldhr`h|tOP   TO      
   835  008350                                       oJ[tOP.        
   836  008360*NO.33                                                            
   837  008370       MOVE    xnrghmldhr`h|tOQ   TO      
   838  008380                                       oJ[tOQ.        
   839  008390*NO.34                                                            
   840  008400       MOVE    xnrghmldhr`h|cz           TO      
   841  008410                                       oJ[cz.              
   842  008420*NO.35                                                            
   843  008430       MOVE    xnrghmldhr`h|k         TO      
   844  008440                                       oJ[k.            
   845  008450*NO.36                                                            
   846  008460       MOVE    xnrghmldhr`h|Nx敪     TO      
   847  008470                                       oJ[ً敪.            
   848  008480*NO.37                                                            
Pro*COBOL: Release 9.2.0.1.0 - Production on y Apr 9 12:48:31 2005

Copyright (c) 1982, 2002, Oracle Corporation.  All rights reserved.

   849  008490       MOVE    xnrghmldhr`h|̍c       TO      
   850  008500                                       oJ[̍c.          
   851  008510*NO.38                                                            
   852  008520       COMPUTE  oJ[̍c  =  v|ŗ  *        
   853  008530                            xnrghmldhr`h|̍c. 
   854  008540*NO.39                                                            
   855  008550       MOVE    xnrghmldhr`h|̌{c       TO      
   856  008560                                       oJ[̌{c.          
   857  008570*NO.40                                                            
   858  008580       MOVE    xnrghmldhr`h|c         TO      
   859  008590                                       oJ[c.        
   860  008600*NO.41                                                            
   861  008610       MOVE    xnrghmldhr`h|{c         TO      
   862  008620                                       oJ[{c.        
   863  008630*NO.42                                                            
   864  008640       MOVE            ZERO           TO    oJ[mc. 
   865  008650*NO.43                                                            
   866  008660       MOVE            ZERO           TO    oJ[m{c. 
   867  008670*NO.44                                                            
   868  008680       MOVE    xnrghmldhr`h|{         TO      
   869  008690                                       oJ[{.            
   870  008700*NO.45                                                            
   871  008710       MOVE    xnrghmldhr`h|         TO      
   872  008720                                       oJ[.            
   873  008730*NO.46                                                            
   874  008740       MOVE    xnrghmldhr`h|         TO      
   875  008750                                       oJ[.            
   876  008760*NO.47                                                            
   877  008770       MOVE    xnrghmldhr`h|a       TO      
   878  008780                                       oJ[a.          
   879  008790*NO.48                                                            
   880  008800       MOVE    xnrghmldhr`h|pz         TO      
   881  008810                                       oJ[pz.            
   882  008820*NO.49                                                            
   883  008830       MOVE    xnrghmldhr`h|Œ藘         TO      
   884  008840                                       oJ[Œ藘.            
   885  008850*NO.50                                                            
   886  008860       MOVE    xnrghmldhr`h|ϓ敪     TO      
   887  008870                                       oJ[ϓ敪.        
   888  008880*NO.51                                                            
   889  008890       MOVE    xnrghmldhr`h|Xvbh       TO      
   890  008900                                       oJ[Xvbh.          
   891  008910*NO.52                                                            
   892  008920       MOVE    xnrghmldhr`h|A敪     TO      
   893  008930                                       oJ[A敪.        
   894  008940*NO.53                                                            
   895  008950       MOVE           SPACE          TO        oJ[l.        
   896  008960*NO.54                                                            
   897  008970       MOVE           ZERO           TO        oJ[ΊO{c.
   898  008980*NO.55                                                            
   899  008990       MOVE   oJ[ΊOc     TO                           
   900  009000                                         oJ[OΊOc.
   901  009010*NO.56                                                            
   902  009020      MOVE  oJ[ΊOc TO                           
   903  009030                                   oJ[OΊOc.
   904  009040*NO.57                                                            
   905  009050      MOVE  oJ[{c       TO                           
   906  009060                                   oJ[OΊO{c.      
   907  009070*NO.58                                                            
   908  009080      MOVE  oJ[Oc         TO   oJ[OOc. 
   909  009090*NO.59                                                            
   910  009100      MOVE  oJ[OOc   TO                           
Pro*COBOL: Release 9.2.0.1.0 - Production on y Apr 9 12:48:31 2005

Copyright (c) 1982, 2002, Oracle Corporation.  All rights reserved.

   911  009110                                    oJ[OOc. 
   912  009120*NO.60                                                            
   913  009130      MOVE  oJ[ݕtʌ         TO   oJ[Oݕtʌ. 
   914  009140*NO.61                                                            
   915  009150      MOVE  oJ[ݕtʌ   TO                           
   916  009160                                     oJ[Oݕtʌ.
   917  009170*NO.62                                                            
   918  009180      MOVE  oJ[ғY         TO   oJ[OғY. 
   919  009190*NO.63                                                            
   920  009200      MOVE  oJ[i             TO   oJ[Oi.     
   921  009210*NO.64                                                            
   922  009220      MOVE        '9'                TO   oJ[񗝗R.         
   923  009230*NO.65                                                            
   924  009240      MOVE  xnrghmjhgnm|敪         TO           
   925  009250                                          oJ[敪.         
   926  009260*NO.66                                                            
   927  009270      MOVE  cRP|۔F敪         TO   oJ[۔F敪.         
   928  009280*NO.67                                                            
   929  009290      COMPUTE   oJ[c  =  v|ŗ  *    
   930  009300                             xnrghmldhr`h|c . 
   931  009310*NO.68                                                            
   932  009320      COMPUTE   oJ[        =  v|ŗ  *    
   933  009330                             xnrghmldhr`h|.  
   934  009340*NO.69                                                            
   935  009350      MOVE   v|N              TO    oJ[o^N.      
   936  009360*NO.70                                                            
   937  009370      MOVE   v|VXe        TO    oJ[o^.        
   938  009380*NO.71                                                            
   939  009390      MOVE   v|S              TO    oJ[o^S.      
   940  009400*NO.72                                                            
   941  009410      MOVE   xnrghmldhr`h|XVt       TO          
   942  009420                                           oJ[XVN.      
   943  009430*NO.73                                                            
   944  009440      MOVE   v|VXe        TO    oJ[XV.        
   945  009450*NO.74                                                            
   946  009460      MOVE   v|S              TO    oJ[XV.          
   947  009470*NO.75                                                            
   948  009480      MOVE   v|S              TO    oJ[͒S҃R[h.
   949  009490 o͕ҏW|dwhs.                                              
   950  009500     EXIT.                                                        
   951  009510                                                                  
   952  009520******************************************************************
   953  009530*     o͏                                                       *
   954  009540***************************************************************** 
   955  009550 o͏                              SECTION.                   
   956  009560 o͏|rs`qs.                                            
   957  009570*                                                                 
   958  009580     WRITE  oJ[R[h.                                       
   959  009590*                                                                 
   960  009600*--< o͏̏Ԕ >                                         
   961  009610     EVALUATE  v|                                           
   962  009620        WHEN  ZERO                                                
   963  009630*--<       o͏̉Z >                                       
   964  009640           COMPUTE   v|ó|  =  v|ó|  + 1       
   965  009650        WHEN  OTHER                                               
   966  009660*--<       t@Co̓G[ >                                   
   967  009670           MOVE     -110                TO  v|G[R[h      
   968  009680           PERFORM  G[菈                                
   969  009690     END-EVALUATE.                                                
   970  009700 o͏|dwhs.                                              
   971  009710     EXIT.                                                        
   972  009720******************************************************************
Pro*COBOL: Release 9.2.0.1.0 - Production on y Apr 9 12:48:31 2005

Copyright (c) 1982, 2002, Oracle Corporation.  All rights reserved.

   973  009730*   e[uǍiQڈȍ~                                 *
   974  009740******************************************************************
   975  009750 e[uǍQڈȍ~             SECTION.                  
   976  009760 e[uǍQڈȍ~|rs`qs.                          
   977  009770      PERFORM  e[uJ[\Ǎ.                          
   978  009780 e[uǍQڈȍ~|dwhs.                            
   979  009790     EXIT.                                                        
   980  009800******************************************************************
   981  009810*    I                                                    *
   982  009820******************************************************************
   983  009830 I                             SECTION.                    
   984  009840 I|rs`qs.                                            
   985  009850*                                                                 
   986  009860     PERFORM  caN[Y.                                   
   987  009870*                                                                 
   988  009880     PERFORM  t@CN[Y.                         
   989  009890                                                                  
   990  009900     PERFORM  bZ[Wo.                                  
   991  009910                                                                  
   992  009920*                                                                 
   993  009930     PERFORM  IbZ[Wo.                                 
   994  009940*                                                                 
   995  009950*--< vOI >                                         
   996  009960     MOVE  萔|             TO  PROGRAM-STATUS.         
   997  009970*                                                                 
   998  009980 I|dwhs.                                              
   999  009990     EXIT.                                                        
  1000  010000******************************************************************
  1001  010010*    IbZ[Wo                                          *
  1002  010020******************************************************************
  1003  010030 IbZ[Wo                   SECTION.                    
  1004  010040 IbZ[Wó|rs`qs.                                  
  1005  010050*                                                                 
  1006  010060*----------------------------------------------------------------*
  1007  010070*    IbZ[Wo                                          *
  1008  010080*----------------------------------------------------------------*
  1009  010090     INITIALIZE                       IF-CHOCO001.                
  1010  010100     MOVE  "3"                        TO  P|Cxg.     
  1011  010110     MOVE  萔|vOhc       TO  P|\[Xhc.       
  1012  010120     MOVE  "ZERO"                     TO  P|AR[h.       
  1013  010130     MOVE  "END"                      TO  P|.         
  1014  010140     MOVE  "vOIbZ[W"                               
  1015  010150                                      TO  P|̑bZ[W. 
  1016  010160     CALL  CLOCO001                USING  IF-CHOCO001.            
  1017  010170*                                                                 
  1018  010180 IbZ[Wó|dwhs.                                    
  1019  010190     EXIT.                                                        
  1020  010200******************************************************************
  1021  010210*    caN[Y                                                *
  1022  010220******************************************************************
  1023  010230 caN[Y                     SECTION.                    
  1024  010240 caN[Y|rs`qs.                                    
  1025  010250*                                                                 
  1026  010260*--< J[\ N[Y >                                          
  1027  010270     EXEC SQL                                                     
  1028  010280        CLOSE  CUR1                                               
  1029  010290     END-EXEC.                                                    
  1030  010300*                                                                 
  1031  010310 caN[Y|dwhs.                                      
  1032  010320     EXIT.                                                        
  1033  010330******************************************************************
  1034  010340*       t@CN[Y.                                    *
Pro*COBOL: Release 9.2.0.1.0 - Production on y Apr 9 12:48:31 2005

Copyright (c) 1982, 2002, Oracle Corporation.  All rights reserved.

  1035  010350******************************************************************
  1036  010360 t@CN[Y                   SECTION.                  
  1037  010370 t@CN[Y|rs`qs.                                
  1038  010380      CLOSE  oJt@C.                                        
  1039  010390                                                                  
  1040  010400 t@CN[Y|dwhs.                                  
  1041  010410     EXIT.                                                        
  1042  010420******************************************************************
  1043  010430*       bZ[Wo.                                 *     
  1044  010440******************************************************************
  1045  010450 bZ[Wo                   SECTION.                    
  1046  010460 bZ[Wó|rs`qs.                                  
  1047  010470*----------------------------------------------------------------*
  1048  010480*   ^M{ bZ[W͏                          *
  1049  010490*----------------------------------------------------------------*
  1050  010500     INITIALIZE                       IF-CHOCO001.                
  1051  010510     MOVE  "3"                        TO  P|Cxg.     
  1052  010520     MOVE  萔|vOhc       TO  P|\[Xhc.       
  1053  010530     MOVE  "ZERO"                     TO  P|AR[h.       
  1054  010540     MOVE  "YOSHINON"                 TO  P|e[uhc. 
  1055  010550     MOVE  "COUNT"                    TO  P|.         
  1056  010560     MOVE  v|^M{́|   TO  P|f[^e.         
  1057  010570     MOVE  "^M({)Ǎ"                                   
  1058  010580                                      TO  P|̑bZ[W. 
  1059  010590     CALL  CLOCO001                  USING  IF-CHOCO001.          
  1060  010600*----------------------------------------------------------------*
  1061  010610*   ^Mד bZ[W͏                          *
  1062  010620*---------------------------------------------------------------- 
  1063  010630     INITIALIZE                       IF-CHOCO001.                
  1064  010640     MOVE  "3"                        TO  P|Cxg.     
  1065  010650     MOVE  萔|vOhc       TO  P|\[Xhc.       
  1066  010660     MOVE  "ZERO"                     TO  P|AR[h.       
  1067  010670     MOVE  "YOSHINAI"                 TO  P|e[uhc. 
  1068  010680     MOVE  "COUNT"                    TO  P|.         
  1069  010690     MOVE  v|^Mד́|    TO  P|f[^e.        
  1070  010700     MOVE  "^M()Ǎ"                                   
  1071  010710                                       TO  P|̑bZ[W.
  1072  010720     CALL  CLOCO001                  USING  IF-CHOCO001.          
  1073  010730*----------------------------------------------------------------*
  1074  010740*   _e bZ[W͏                          *
  1075  010750*---------------------------------------------------------------- 
  1076  010760     INITIALIZE                       IF-CHOCO001.                
  1077  010770     MOVE  "3"                        TO  P|Cxg.     
  1078  010780     MOVE  萔|vOhc       TO  P|\[Xhc.       
  1079  010790     MOVE  "ZERO"                     TO  P|AR[h.       
  1080  010800     MOVE  "D31KYK"                   TO  P|e[uhc. 
  1081  010810     MOVE  "COUNT"                    TO  P|.         
  1082  010820     MOVE  v|_é|     TO  P|f[^e.       
  1083  010830     MOVE  "_eǍ"                                     
  1084  010840                                       TO  P|̑bZ[W.
  1085  010850     CALL  CLOCO001                  USING  IF-CHOCO001.          
  1086  010860*----------------------------------------------------------------*
  1087  010870*    bZ[W͏                              *
  1088  010880*---------------------------------------------------------------- 
  1089  010890     INITIALIZE                       IF-CHOCO001.                
  1090  010900     MOVE  "3"                        TO  P|Cxg.     
  1091  010910     MOVE  萔|vOhc       TO  P|\[Xhc.       
  1092  010920     MOVE  "ZERO"                     TO  P|AR[h.       
  1093  010930     MOVE  "K32SAK"                   TO  P|e[uhc. 
  1094  010940     MOVE  "COUNT"                    TO  P|.         
  1095  010950     MOVE  v|́|         TO  P|f[^e.       
  1096  010960     MOVE  "Ǎ"                                         
Pro*COBOL: Release 9.2.0.1.0 - Production on y Apr 9 12:48:31 2005

Copyright (c) 1982, 2002, Oracle Corporation.  All rights reserved.

  1097  010970                                       TO  P|̑bZ[W.
  1098  010980     CALL  CLOCO001                  USING  IF-CHOCO001.          
  1099  010990*----------------------------------------------------------------*
  1100  011000*    bZ[Wo͏                                      *
  1101  011010*----------------------------------------------------------------*
  1102  011020     INITIALIZE                       IF-CHOCO001.                
  1103  011030     MOVE  "3"                        TO  P|Cxg.     
  1104  011040     MOVE  萔|vOhc       TO  P|\[Xhc.       
  1105  011050     MOVE  "ZERO"                     TO  P|AR[h.    
  1106  011060     MOVE  "FFUIS660"                 TO  P|e[uhc. 
  1107  011070     MOVE  "COUNT"                    TO  P|.         
  1108  011080     MOVE  v|ó|             TO  P|f[^e.       
  1109  011090     MOVE  "Ǘ^M_(PS)o͌"                             
  1110  011100                                      TO  P|̑bZ[W. 
  1111  011110     CALL  CLOCO001                USING  IF-CHOCO001.            
  1112  011120 bZ[Wó|dwhs.                                    
  1113  011130     EXIT.                                                        
  1114  011140                                                                  
  1115  011150******************************************************************
  1116  011160*    G[                                                  *
  1117  011170******************************************************************
  1118  011180 G[菈                       SECTION.                    
  1119  011190 G[菈|rs`qs.                                      
  1120  011200*                                                                 
  1121  011210     MOVE  "Y"                        TO v|ُI|tO.    
  1122  011220     INITIALIZE                           IF-CHOCO001.            
  1123  011230*                                                                 
  1124  011240     EVALUATE  v|G[R[h                                   
  1125  011250        WHEN  -10                                                 
  1126  011260*--<       nq`bkdڑs >                                 
  1127  011270           MOVE  "1"                  TO  P|Cxg      
  1128  011280           MOVE  萔|vOhc TO  P|\[Xhc        
  1129  011290           MOVE  "9"                  TO  P|AR[h        
  1130  011300           MOVE  "CONNECT"            TO  P|          
  1131  011310           MOVE  SQLCODE              TO  P|f[^e        
  1132  011320           MOVE  SQLERRMC             TO  P|̑bZ[W  
  1133  011330           CALL  CLOCO001          USING  IF-CHOCO001             
  1134  011340*                                                                 
  1135  011350                                                                  
  1136  011360                                                                  
  1137  011370        WHEN   -20                                                
  1138  011380*--<e[uJ[\錾s  >                               
  1139  011390           MOVE  "1"                  TO  P|Cxg      
  1140  011400           MOVE  萔|vOhc TO  P|\[Xhc        
  1141  011410           MOVE  "9"                  TO  P|AR[h        
  1142  011420           MOVE  "YOSHISAI"           TO  P|e[uhc  
  1143  011430           MOVE  "OPEN"               TO  P|          
  1144  011440           MOVE  SQLCODE              TO  P|f[^e        
  1145  011450           MOVE  SQLERRMC             TO  P|̑bZ[W  
  1146  011460           CALL  CLOCO001          USING  IF-CHOCO001             
  1147  011470*                                                                 
  1148  011480        WHEN  -30                                                 
  1149  011490*--<   t@CI[vs >                                     
  1150  011500           MOVE  "1"                  TO  P|Cxg      
  1151  011510           MOVE  萔|vOhc TO  P|\[Xhc        
  1152  011520           MOVE  "9"                  TO  P|AR[h        
  1153  011530           MOVE  "FFUIS660"           TO  P|e[uhc  
  1154  011540           MOVE  "OPEN"               TO  P|          
  1155  011550           MOVE   v|            TO  P|f[^e        
  1156  011560           MOVE   "t@CI[vs "                         
  1157  011570                                      TO  P|̑bZ[W  
  1158  011580           CALL  CLOCO001          USING  IF-CHOCO001             
Pro*COBOL: Release 9.2.0.1.0 - Production on y Apr 9 12:48:31 2005

Copyright (c) 1982, 2002, Oracle Corporation.  All rights reserved.

  1159  011590*                                                                 
  1160  011600        WHEN  -40                                                 
  1161  011610*--<  e[uJ[\Ǎs     >                          
  1162  011620           MOVE  "1"                  TO  P|Cxg      
  1163  011630           MOVE  萔|vOhc TO  P|\[Xhc        
  1164  011640           MOVE  "9"                  TO  P|AR[h        
  1165  011650           MOVE  "YOSHSAI"            TO  P|e[uhc  
  1166  011660           MOVE  "FETCH"              TO  P|          
  1167  011670           MOVE  SQLCODE              TO  P|f[^e        
  1168  011680           MOVE  SQLERRMC             TO  P|̑bZ[W  
  1169  011690           CALL  CLOCO001          USING  IF-CHOCO001             
  1170  011700*                                                                 
  1171  011710*                                                                 
  1172  011720         WHEN  -60                                                
  1173  011730*--<     ă[X񐔏s >                                   
  1174  011740           MOVE  "2"                  TO  P|Cxg      
  1175  011750           MOVE  萔|vOhc TO  P|\[Xhc        
  1176  011760           MOVE  "9"                  TO  P|AR[h        
  1177  011770           MOVE  "IKO002"             TO  P|e[uhc  
  1178  011780           MOVE  "SELECT"             TO  P|          
  1179  011790           MOVE  SQLCODE              TO  P|f[^e        
  1180  011800           MOVE  SQLERRMC             TO  P|̑bZ[W  
  1181  011810           CALL  CLOCO001          USING  IF-CHOCO001             
  1182  011820           MOVE  "N"                  TO v|ُI|tO     
  1183  011830                                                                  
  1184  011840*                                                                 
  1185  011850         WHEN  -70                                                
  1186  011860*--<   _ޏs >                                     
  1187  011870           MOVE  "2"                  TO  P|Cxg      
  1188  011880           MOVE  萔|vOhc TO  P|\[Xhc        
  1189  011890           MOVE  "9"                  TO  P|AR[h        
  1190  011900           MOVE  "IKO002"             TO  P|e[uhc  
  1191  011910           MOVE  "SELECT"             TO  P|          
  1192  011920           MOVE  SQLCODE              TO  P|f[^e        
  1193  011930           MOVE  SQLERRMC             TO  P|̑bZ[W  
  1194  011940           CALL  CLOCO001          USING  IF-CHOCO001             
  1195  011950           MOVE  "N"                  TO v|ُI|tO     
  1196  011960*                                                                 
  1197  011970         WHEN  -80                                                
  1198  011980*--<_R[hs >                                        
  1199  011990           MOVE  "2"                  TO  P|Cxg      
  1200  012000           MOVE  萔|vOhc TO  P|\[Xhc        
  1201  012010           MOVE  "9"                  TO  P|AR[h        
  1202  012020           MOVE  "IKOTL001"           TO  P|e[uhc  
  1203  012030           MOVE  "SELECT"             TO  P|          
  1204  012040           MOVE  SQLCODE              TO  P|f[^e        
  1205  012050           MOVE  SQLERRMC             TO  P|̑bZ[W  
  1206  012060           CALL  CLOCO001          USING  IF-CHOCO001             
  1207  012070          MOVE  "N"                  TO v|ُI|tO      
  1208  012080                                                                  
  1209  012090         WHEN  -90                                                
  1210  012100*--<    _e s >                                       
  1211  012110           MOVE  "2"                  TO  P|Cxg      
  1212  012120           MOVE  萔|vOhc TO  P|\[Xhc        
  1213  012130           MOVE  "9"                  TO  P|AR[h        
  1214  012140           MOVE  "D31KYK"             TO  P|e[uhc  
  1215  012150           MOVE  "SELECT"             TO  P|          
  1216  012160           MOVE  SQLCODE              TO  P|f[^e        
  1217  012170           MOVE  SQLERRMC             TO  P|̑bZ[W  
  1218  012180           CALL  CLOCO001          USING  IF-CHOCO001             
  1219  012190           MOVE  "N"                  TO v|ُI|tO     
  1220  012200                                                                  
Pro*COBOL: Release 9.2.0.1.0 - Production on y Apr 9 12:48:31 2005

Copyright (c) 1982, 2002, Oracle Corporation.  All rights reserved.

  1221  012210         WHEN  -100                                               
  1222  012220*--<    v|ŗs >                                    
  1223  012230           MOVE  "2"                  TO  P|Cxg      
  1224  012240           MOVE  萔|vOhc TO  P|\[Xhc        
  1225  012250           MOVE  "9"                  TO  P|AR[h        
  1226  012260           MOVE  "D32SAK"             TO  P|e[uhc  
  1227  012270           MOVE  "SELECT"             TO  P|          
  1228  012280           MOVE  SQLCODE              TO  P|f[^e        
  1229  012290           MOVE  SQLERRMC             TO  P|̑bZ[W  
  1230  012300           CALL  CLOCO001          USING  IF-CHOCO001             
  1231  012310           MOVE  "N"                  TO v|ُI|tO     
  1232  012320                                                                  
  1233  012330         WHEN  -110                                               
  1234  012340*--< WTITEt@C s >                                     
  1235  012350           MOVE  "1"                  TO  P|Cxg      
  1236  012360           MOVE  萔|vOhc TO  P|\[Xhc        
  1237  012370           MOVE  "9"                  TO  P|AR[h        
  1238  012380           MOVE  "FFUIS660"           TO  P|e[uhc  
  1239  012390           MOVE  "WRITE"              TO  P|          
  1240  012400           MOVE   v|            TO  P|f[^e        
  1241  012410           MOVE   "WTITEt@Cs"                             
  1242  012420                                      TO P|̑bZ[W   
  1243  012430           CALL  CLOCO001          USING  IF-CHOCO001             
  1244  012440                                                                  
  1245  012450*                                                                 
  1246  012460        WHEN  OTHER                                               
  1247  012470           MOVE  "N"                  TO v|ُI|tO     
  1248  012480     END-EVALUATE.                                                
  1249  012490*                                                                 
  1250  012500     IF v|ُI|tO  =  "Y"                              
  1251  012510*                                                                 
  1252  012520        PERFORM  bZ[Wo                                
  1253  012530        PERFORM  IbZ[Wo                               
  1254  012540*                                                                 
  1255  012550*--<    vOُĨ^[R[h >                      
  1256  012560        MOVE  萔|ُ          TO  PROGRAM-STATUS          
  1257  012570*                                                                 
  1258  012580        EXIT  PROGRAM                                             
  1259  012590     END-IF.                                                      
  1260  012600*                                                                 
  1261  012610 G[菈|dwhs.                                        
  1262  012620     EXIT.                                                        
  1263  012630******************************************************************
  1264  012640*                  END OF PROGRAM                                *
  1265  012650******************************************************************
t@C: COBIS660.PCON[Y
Pro*COBOL: Release 9.2.0.1.0 - Production on y Apr 9 12:48:31 2005

Copyright (c) 1982, 2002, Oracle Corporation.  All rights reserved.


zXgϐ
--------------

01  DB-STRING                                           Charf(20)
  Z:\COB97\COPYLIB_DB\SQLCOM.CBL      3
  COBIS660.PCO    228

01  PASSWD                                              Charf(10)
  Z:\COB97\COPYLIB_DB\SQLCOM.CBL      5
  COBIS660.PCO    223    227

01  SQLSTATE                                            Charf(5)
  Z:\COB97\COPYLIB_DB\SQLCOM.CBL      2
  COBIS660.PCO    222    226    312    358    507    540    569    600    629    661   1027

01  USERNAME                                            Charf(10)
  Z:\COB97\COPYLIB_DB\SQLCOM.CBL      4
  COBIS660.PCO    223    227

03  cRP|_񌏖 OF _e                        Charf(60)
  Z:\COB97\COPYLIB_DB\D31KYK.CBL     18
  COBIS660.PCO    632

03  cRP|۔F敪 OF _e                        Charf(1)
  Z:\COB97\COPYLIB_DB\D31KYK.CBL    255
  COBIS660.PCO    633

03  cRQ|ŐVŋ敪 OF                       Charf(2)
  Z:\COB97\COPYLIB_DB\D32SAK.CBL     19
  COBIS660.PCO    663

01  hjnOOP|}                                  Charf(3)
  Z:\COB97\COPYLIB_DB\IKOTBL001.CBL      7
  COBIS660.PCO    602

01  hjnOOP|R[h                          Charf(8)
  Z:\COB97\COPYLIB_DB\IKOTBL001.CBL      4
  COBIS660.PCO    511

01  hjnOOQ|_                              Charf(3)
  Z:\COB97\COPYLIB_DB\IKOTBL002.CBL     11
  COBIS660.PCO    572    667

01  hjnOOQ|ă[X                          Decimal(2,0)
  Z:\COB97\COPYLIB_DB\IKOTBL002.CBL      8
  COBIS660.PCO    542    575    636    666

01  hjnOOQ|_敪                            Charf(1)
  Z:\COB97\COPYLIB_DB\IKOTBL002.CBL     12
  COBIS660.PCO    573

01  vr|Ǘ^M                                    Charf(8)
  COBIS660.PCO     56    604

01  xnrghmjhgnm|敪                    Charf(1)
  Z:\COB97\COPYLIB_DB\YOSHINKIHON.CBL      8
  COBIS660.PCO    399

01  xnrghmjhgnm|Ǘ^MR[h            Charf(8)
  Z:\COB97\COPYLIB_DB\YOSHINKIHON.CBL      4
  COBIS660.PCO    360    510    514
Pro*COBOL: Release 9.2.0.1.0 - Production on y Apr 9 12:48:31 2005

Copyright (c) 1982, 2002, Oracle Corporation.  All rights reserved.


01  xnrghmldhr`h|a                Decimal(13,0)
  Z:\COB97\COPYLIB_DB\YOSHINMEISAI.CBL     42
  COBIS660.PCO    393

01  xnrghmldhr`h|Xvbh                Decimal(11,8)
  Z:\COB97\COPYLIB_DB\YOSHINMEISAI.CBL     48
  COBIS660.PCO    397

01  xnrghmldhr`h|Nx敪              Charf(1)
  Z:\COB97\COPYLIB_DB\YOSHINMEISAI.CBL     32
  COBIS660.PCO    385

01  xnrghmldhr`h|؊Jn                Charf(8)
  Z:\COB97\COPYLIB_DB\YOSHINMEISAI.CBL     17
  COBIS660.PCO    380

01  xnrghmldhr`h|Jn                  Charf(1)
  Z:\COB97\COPYLIB_DB\YOSHINMEISAI.CBL     27
  COBIS660.PCO    376

01  xnrghmldhr`h|R[h                Charf(2)
  Z:\COB97\COPYLIB_DB\YOSHINMEISAI.CBL      9
  COBIS660.PCO    362    546

01  xnrghmldhr`h|ϓ敪              Charf(1)
  Z:\COB97\COPYLIB_DB\YOSHINMEISAI.CBL     47
  COBIS660.PCO    396

01  xnrghmldhr`h|_mn                  Charf(9)
  Z:\COB97\COPYLIB_DB\YOSHINMEISAI.CBL      8
  COBIS660.PCO    361    544    635    665

01  xnrghmldhr`h|_z                  Decimal(13,0)
  Z:\COB97\COPYLIB_DB\YOSHINMEISAI.CBL     24
  COBIS660.PCO    374

01  xnrghmldhr`h|_                    Charf(8)
  Z:\COB97\COPYLIB_DB\YOSHINMEISAI.CBL     14
  COBIS660.PCO    365

01  xnrghmldhr`h|vZ                  Charf(1)
  Z:\COB97\COPYLIB_DB\YOSHINMEISAI.CBL     29
  COBIS660.PCO    378

01  xnrghmldhr`h|k                  Decimal(13,0)
  Z:\COB97\COPYLIB_DB\YOSHINMEISAI.CBL     31
  COBIS660.PCO    384

01  xnrghmldhr`h|                    Charf(8)
  Z:\COB97\COPYLIB_DB\YOSHINMEISAI.CBL     15
  COBIS660.PCO    366

01  xnrghmldhr`h|Œ藘                  Decimal(11,8)
  Z:\COB97\COPYLIB_DB\YOSHINMEISAI.CBL     45
  COBIS660.PCO    395

01  xnrghmldhr`h|XVt                  Charf(8)
  Z:\COB97\COPYLIB_DB\YOSHINMEISAI.CBL     44
  COBIS660.PCO    400

01  xnrghmldhr`h|cz                    Decimal(13,0)
Pro*COBOL: Release 9.2.0.1.0 - Production on y Apr 9 12:48:31 2005

Copyright (c) 1982, 2002, Oracle Corporation.  All rights reserved.

  Z:\COB97\COPYLIB_DB\YOSHINMEISAI.CBL     25
  COBIS660.PCO    383

01  xnrghmldhr`h|tOP            Charf(2)
  Z:\COB97\COPYLIB_DB\YOSHINMEISAI.CBL     11
  COBIS660.PCO    381

01  xnrghmldhr`h|tOQ            Charf(2)
  Z:\COB97\COPYLIB_DB\YOSHINMEISAI.CBL     12
  COBIS660.PCO    382

01  xnrghmldhr`h|ƏR[h              Charf(4)
  Z:\COB97\COPYLIB_DB\YOSHINMEISAI.CBL     10
  COBIS660.PCO    363

01  xnrghmldhr`h|̌{c                Decimal(13,0)
  Z:\COB97\COPYLIB_DB\YOSHINMEISAI.CBL     34
  COBIS660.PCO    387

01  xnrghmldhr`h|̍c                Decimal(13,0)
  Z:\COB97\COPYLIB_DB\YOSHINMEISAI.CBL     33
  COBIS660.PCO    386

01  xnrghmldhr`h|̓                    Charf(8)
  Z:\COB97\COPYLIB_DB\YOSHINMEISAI.CBL      7
  COBIS660.PCO    364

01  xnrghmldhr`h|Mpی              Decimal(13,0)
  Z:\COB97\COPYLIB_DB\YOSHINMEISAI.CBL     22
  COBIS660.PCO    373

01  xnrghmldhr`h|Mpیtۋ            Charf(1)
  Z:\COB97\COPYLIB_DB\YOSHINMEISAI.CBL     21
  COBIS660.PCO    372

01  xnrghmldhr`h|TCN              Charf(2)
  Z:\COB97\COPYLIB_DB\YOSHINMEISAI.CBL     30
  COBIS660.PCO    379

01  xnrghmldhr`h|ݕtʌ                Decimal(13,0)
  Z:\COB97\COPYLIB_DB\YOSHINMEISAI.CBL     18
  COBIS660.PCO    369

01  xnrghmldhr`h|i                    Decimal(13,0)
  Z:\COB97\COPYLIB_DB\YOSHINMEISAI.CBL     20
  COBIS660.PCO    371

01  xnrghmldhr`h|{c                  Decimal(13,0)
  Z:\COB97\COPYLIB_DB\YOSHINMEISAI.CBL     36
  COBIS660.PCO    389

01  xnrghmldhr`h|c                  Decimal(13,0)
  Z:\COB97\COPYLIB_DB\YOSHINMEISAI.CBL     35
  COBIS660.PCO    368    388

01  xnrghmldhr`h|                    Charf(2)
  Z:\COB97\COPYLIB_DB\YOSHINMEISAI.CBL     26
  COBIS660.PCO    375

01  xnrghmldhr`h|pz                  Decimal(13,0)
  Z:\COB97\COPYLIB_DB\YOSHINMEISAI.CBL     43
  COBIS660.PCO    394
Pro*COBOL: Release 9.2.0.1.0 - Production on y Apr 9 12:48:31 2005

Copyright (c) 1982, 2002, Oracle Corporation.  All rights reserved.


01  xnrghmldhr`h|ғY                Decimal(13,0)
  Z:\COB97\COPYLIB_DB\YOSHINMEISAI.CBL     19
  COBIS660.PCO    370

01  xnrghmldhr`h|                    Charf(8)
  Z:\COB97\COPYLIB_DB\YOSHINMEISAI.CBL     16
  COBIS660.PCO    367

01  xnrghmldhr`h|{                  Decimal(13,0)
  Z:\COB97\COPYLIB_DB\YOSHINMEISAI.CBL     39
  COBIS660.PCO    390

01  xnrghmldhr`h|                  Decimal(13,0)
  Z:\COB97\COPYLIB_DB\YOSHINMEISAI.CBL     40
  COBIS660.PCO    391

01  xnrghmldhr`h|                  Decimal(13,0)
  Z:\COB97\COPYLIB_DB\YOSHINMEISAI.CBL     41
  COBIS660.PCO    392

01  xnrghmldhr`h|׎x              Charf(3)
  Z:\COB97\COPYLIB_DB\YOSHINMEISAI.CBL     28
  COBIS660.PCO    377

01  xnrghmldhr`h|A敪              Charf(1)
  Z:\COB97\COPYLIB_DB\YOSHINMEISAI.CBL     50
  COBIS660.PCO    398

Pro*COBOL: Release 9.2.0.1.0 - Production on y Apr 9 12:48:31 2005

Copyright (c) 1982, 2002, Oracle Corporation.  All rights reserved.


SQLʎq
---------------

CUR1                  CURSOR                        
  COBIS660.PCO    255    313    359   1028    255

Pro*COBOL: Release 9.2.0.1.0 - Production on y Apr 9 12:48:31 2005

Copyright (c) 1982, 2002, Oracle Corporation.  All rights reserved.



                              vRpCEIvV
-------------------------------------------------------------------------------
IvV   ݂̐ݒl         ݒ
-------------------------------------------------------------------------------
asacc             no                ftHg                                  
assume_sqlcode    no                ftHg                                  
auto_connect      no                ftHg                                  
close_on_commit   yes               mode                                        
comp5             yes               D:\oracle\ora90\precomp\admin\pcbcfg.cfg    
config            default config    ftHg                                  
date_format       local             ftHg                                  
dbms              native            ftHg                                  
declare_section   yes               mode                                        
define            *Ȃ*            ftHg                                  
dynamic           ansi              mode                                        
end_of_fetch      100               mode                                        
eol_padding       yes               ftHg                                  
errors            yes               ftHg                                  
fips              no                ftHg                                  
format            ansi              ftHg                                  
hold_cursor       no                ftHg                                  
host              cobol             ftHg                                  
iname             COBIS660.PCO      R}hC                              
include           Z:\COB97\COPYLIB  D:\oracle\ora90\precomp\admin\pcbcfg.cfg    
                  Z:\COB97\COPYLIB_DD:\oracle\ora90\precomp\admin\pcbcfg.cfg    
                  *Ȃ*            D:\oracle\ora90\precomp\admin\pcbcfg.cfg    
ireclen           132               D:\oracle\ora90\precomp\admin\pcbcfg.cfg    
litdelim          quote             ftHg                                  
lname             *Ȃ*            ftHg                                  
lreclen           132               ftHg                                  
ltype             long              ftHg                                  
maxliteral        160               D:\oracle\ora90\precomp\admin\pcbcfg.cfg    
maxopencursors    10                ftHg                                  
mode              ANSI              D:\oracle\ora90\precomp\admin\pcbcfg.cfg    
nested            yes               ftHg                                  
nls_local         yes               D:\oracle\ora90\precomp\admin\pcbcfg.cfg    
oname             COBIS660          R}hC                              
oraca             no                ftHg                                  
oreclen           80                ftHg                                  
pagelen           66                ftHg                                  
picx              charf             ftHg                                  
prefetch          1                 ftHg                                  
release_cursor    no                ftHg                                  
select_error      yes               ftHg                                  
sqlcheck          FULL              D:\oracle\ora90\precomp\admin\pcbcfg.cfg    
threads           no                ftHg                                  
type_code         ansi              mode                                        
unsafe_null       no                ftHg                                  
userid            XUBAOJUN/XBJ@FIP  D:\oracle\ora90\precomp\admin\pcbcfg.cfg    
varchar           no                ftHg                                  
xref              yes               ftHg                                  
Pro*COBOL: Release 9.2.0.1.0 - Production on y Apr 9 12:48:31 2005

Copyright (c) 1982, 2002, Oracle Corporation.  All rights reserved.


v\
----------

^[ER[h: 0
dv Ił̃bZ[W: 0
dv Wł̃bZ[W: 0
dv Eł̃bZ[W: 0
dv Fł̃bZ[W: 0
̓C̐: 2014
錾ꂽzXgϐ̐: 518
J[\̐: 1
̐: 0
gpő僁[(oCg): 570899
