Pro*COBOL: Release 9.2.0.1.0 - Production on  Apr 8 16:56:55 2005

Copyright (c) 1982, 2002, Oracle Corporation.  All rights reserved.

t@C: C:\COB97\SOC\COBIS631\COBIS631.PCOI[v
     1  000010******************************************************************
     2  000020*         CP(A)                                     *
     3  000030*      1. vO  : t@N^O쐬                   *
     4  000040*      2. vOID  : COBIS631                               *
     5  000050*      3. Tv      : _ԍKEYƂAt@N^O      *
     6  000060*                         ({)ƃt@N^O(`)   *
     7  000070*                         ŌsB                     *
     8  000080*                                                                *
     9  000090*      4. 쐬        :                                    *
    10  000100*      5. 쐬        : 2005.04.02                             *
    11  000110******************************************************************
    12  000120*                                                                 
    13  000130******************************************************************
    14  000140*    hcdmshehb`shnm  chuhrhnm              *
    15  000150******************************************************************
    16  000160 IDENTIFICATION                        DIVISION.                  
    17  000170*                                                                 
    18  000180 PROGRAM-ID.                           COBIS631.                  
    19  000190******************************************************************
    20  000200*    dmuhqnmldms        chuhrhnm              *
    21  000210******************************************************************
    22  000220 ENVIRONMENT                           DIVISION.                  
    23  000230******************************************************************
    24  000240*    hmots|ntsots      rdbshnm                *
    25  000250******************************************************************
    26  000260 INPUT-OUTPUT                          SECTION.                   
    27  000270 FILE-CONTROL.                                                    
    28  000280*                                                                 
    29  000290     SELECT         ̓t@C       ASSIGN    TO   U05         
    30  000300     FILE STATUS    IS     t@C                           
    31  000310     ORGANIZATION   IS     LINE        SEQUENTIAL.                
    32  000320*                                                                 
    33  000330******************************************************************
    34  000340*    c`s`                      chuhrhnm              *
    35  000350******************************************************************
    36  000360 DATA                                  DIVISION.                  
    37  000370******************************************************************
    38  000380*    ehk                            bshnm                *
    39  000390******************************************************************
    40  000400 FILE                                  SECTION.                   
    41  000410*----------------------------------------------------------------*
    42  000420*    ̓t@C                                                *
    43  000430*----------------------------------------------------------------*
    44  000440 FD  ̓t@C                                                 
    45  000450     LABEL  RECORD    IS               STANDARD                   
    46  000460     BLOCK  CONTAINS  0                RECORDS.                   
    47  000470*                                                                 
    48  000480 01  ́|R[h.                                              
    49  000490     COPY   CISPF001   REPLACING       ==()==  BY  ==́|==.    
    50  000500*                                                                 
    51  000510******************************************************************
    52  000520*  vnqjhmf|rsnq`fd  rdbshnm                *
    53  000530******************************************************************
    54  000540  WORKING-STORAGE                      SECTION.                   
    55  000550*----------------------------------------------------------------*
    56  000560*    zXgϐ`GA                                        *
    57  000570*----------------------------------------------------------------*
    58  000580     EXEC  SQL  BEGIN  DECLARE         SECTION  END-EXEC.         
    59  000590*                                                                 
    60  000600*--< nq`bkdʕϐ >                                       
    61  000610     EXEC  SQL  INCLUDE  SQLCOM.CBL            END-EXEC.          
Pro*COBOL: Release 9.2.0.1.0 - Production on  Apr 8 16:56:55 2005

Copyright (c) 1982, 2002, Oracle Corporation.  All rights reserved.

    62  000620*                                                                 
    63  000630*--< nq`bkd  rpks >                               
t@C: Z:\COB97\COPYLIB_DB\SQLCOM.CBLI[v
     1  000010*--rpkʕϐ
     2  000030   01  SQLSTATE                      PIC  X(005).
     3  000040   01  DB-STRING                     PIC  X(020).
     4  000050   01  USERNAME                      PIC  X(010).
     5  000060   01  PASSWD                        PIC  X(010).
     6  000070*
t@C: Z:\COB97\COPYLIB_DB\SQLCOM.CBLN[Y
    64  000640     EXEC  SQL  INCLUDE  SQLCA.COB             END-EXEC.          
    65  000650*                                                                 
    66  000660*--< t@N^O({)e[u >                           
    67  000670     EXEC  SQL  INCLUDE  LTRFCK.CBL            END-EXEC.          
    68  000680*                                                                 
    69  000690*--< t@N^O(`)e[u >                           
t@C: Z:\COB97\COPYLIB_DB\LTRFCK.CBLI[v
     1  000010************************************************
     2  000020* ̧ݸށi{j(LTRFCK)
     3  000030************************************************
     4  000040 01  ksqebj|_ԍ PIC  X(009).
     5  000050 01  ksqebj|[U[R[h PIC  X(008).
     6  000060 01  ksqebj|R[h PIC  X(008).
     7  000070 01  ksqebj|ƏR[h PIC S9(004) COMP-3.
     8  000080 01  ksqebj|S҃R[h PIC S9(004) COMP-3.
     9  000090 01  ksqebj|_ PIC  X(007).
    10  000100 01  ksqebj|s PIC  X(007).
    11  000110 01  ksqebj|菈R[h PIC S9(002) COMP-3.
    12  000120 01  ksqebj|Г PIC S9(003)V9(8) COMP-3.
    13  000130 01  ksqebj| PIC S9(003)V9(8) COMP-3.
    14  000140 01  ksqebj|ev PIC S9(013) COMP-3.
    15  000150 01  ksqebj|zʋz PIC S9(013) COMP-3.
    16  000160 01  ksqebj|Ɩ敪 PIC S9(001) COMP-3.
    17  000170 01  ksqebj| PIC  X(007).
    18  000180 01  ksqebj|sR[h PIC  X(007).
    19  000190 01  ksqebj|ԍ PIC  X(007).
    20  000200 01  ksqebj|a PIC S9(001) COMP-3.
    21  000210 01  ksqebj|Č敪 PIC  X(001).
    22  000220 01  ksqebj|gc敪 PIC S9(001) COMP-3.
    23  000230 01  ksqebj|R[h PIC S9(001) COMP-3.
    24  000240 01  ksqebj|[R[h PIC S9(001) COMP-3.
    25  000250 01  ksqebj|O敪 PIC S9(001) COMP-3.
    26  000260 01  ksqebj|В[[敪 PIC S9(001) COMP-3.
    27  000270 01  ksqebj|ϓ敪 PIC S9(001) COMP-3.
    28  000280 01  ksqebj|A敪 PIC S9(002) COMP-3.
    29  000290 01  ksqebj|Xvbh PIC S9(003)V9(8) COMP-3.
    30  000300 01  ksqebj|xΉ敪 PIC S9(001) COMP-3.
    31  000310 01  ksqebj|҃R[h PIC  X(008).
    32  000320 01  ksqebj|ҏP PIC  X(040).
    33  000330 01  ksqebj|ҏQ PIC  X(040).
    34  000340 01  ksqebj|ҏR PIC  X(040).
    35  000350 01  ksqebj|Fmn PIC  X(006).
    36  000360 01  ksqebj|xF PIC  X(007).
    37  000370 01  ksqebj|xF|S҃R[h PIC  X(004).
    38  000380 01  ksqebj|x@R[h PIC S9(002) COMP-3.
    39  000390 01  ksqebj|Ǘs PIC  X(007).
    40  000400 01  ksqebj|cao^ PIC  X(007).
    41  000410 01  ksqebj|\ PIC  X(090).
    42  000420 01  ksqebj|ʏ PIC  X(035).
t@C: Z:\COB97\COPYLIB_DB\LTRFCK.CBLN[Y
    70  000700     EXEC  SQL  INCLUDE  LTRFCT.CBL            END-EXEC.          
    71  000710*                                                                 
Pro*COBOL: Release 9.2.0.1.0 - Production on  Apr 8 16:56:55 2005

Copyright (c) 1982, 2002, Oracle Corporation.  All rights reserved.

    72  000720*--< ij}X^>                                      
t@C: Z:\COB97\COPYLIB_DB\LTRFCT.CBLI[v
     1  000010************************************************
     2  000020* ̧ݸށi`j(LTRFCT)
     3  000030************************************************
     4  000040 01  ksqebs|_ԍ PIC  X(009).
     5  000050 01  ksqebs| PIC  X(007).
     6  000060 01  ksqebs|@ PIC S9(001) COMP-3.
     7  000070 01  ksqebs|㗝敪 PIC S9(001) COMP-3.
     8  000080 01  ksqebs|ԓ PIC S9(004) COMP-3.
     9  000090 01  ksqebs|z PIC S9(013) COMP-3.
    10  000100 01  ksqebs| PIC S9(013) COMP-3.
    11  000110 01  ksqebs| PIC S9(003)V9(8) COMP-3.
    12  000120 01  ksqebs|萔 PIC S9(013) COMP-3.
    13  000130 01  ksqebs|萔œz PIC S9(013) COMP-3.
    14  000140 01  ksqebs|ߗ\ PIC  X(007).
    15  000150 01  ksqebs|x PIC  X(007).
    16  000160 01  ksqebs|\ PIC  X(060).
    17  000170 01  ksqebs|Oٓ PIC  X(007).
    18  000180 01  ksqebs|߂z PIC S9(013) COMP-3.
    19  000190 01  ksqebs|߂ PIC S9(003)V9(8) COMP-3.
    20  000200 01  ksqebs|߂ PIC S9(004) COMP-3.
    21  000210 01  ksqebs|߂E敪 PIC S9(001) COMP-3.
    22  000220 01  ksqebs|ԍώ萔 PIC S9(013) COMP-3.
    23  000230 01  ksqebs|ԍώ萔œz PIC S9(013) COMP-3.
    24  000240 01  ksqebs|_~[OOP PIC  X(040).
    25  000250 01  ksqebs|`ԍ PIC  X(010).
    26  000260 01  ksqebs|` PIC S9(001) COMP-3.
    27  000270 01  ksqebs|`@ PIC S9(001) COMP-3.
    28  000280 01  ksqebs|sR[h PIC  X(007).
    29  000290 01  ksqebs|xl PIC  X(060).
    30  000300 01  ksqebs|xꏊ PIC  X(060).
    31  000310 01  ksqebs|_~[OOQ PIC  X(061).
t@C: Z:\COB97\COPYLIB_DB\LTRFCT.CBLN[Y
    73  000730     EXEC  SQL  INCLUDE  LTRTRI.CBL            END-EXEC.          
    74  000740                                                                  
    75  000750*--< `e[u>                                            
t@C: Z:\COB97\COPYLIB_DB\LTRTRI.CBLI[v
     1  000010************************************************
     2  000020* }X^[i惌R[hj(LTRTRI)
     3  000030************************************************
     4  000040 01  ksqsqh|R[h PIC  X(008).
     5  000050 01  ksqsqh|ړI敪 PIC  X(001).
     6  000060 01  ksqsqh|ړI敪[U[ PIC  X(001).
     7  000070 01  ksqsqh|ړI敪 PIC  X(001).
     8  000080 01  ksqsqh|ړI敪w PIC  X(001).
     9  000090 01  ksqsqh|ړI敪ۏؐ PIC  X(001).
    10  000100 01  ksqsqh|ړI敪Љ PIC  X(001).
    11  000110 01  ksqsqh|ړI敪 PIC  X(001).
    12  000120 01  ksqsqh|ړI敪p PIC  X(001).
    13  000130 01  ksqsqh|ړI敪̑ PIC  X(001).
    14  000140 01  ksqsqh|ړI敪O[v PIC  X(001).
    15  000150 01  ksqsqh|ړI敪_~[ PIC  X(004).
    16  000160 01  ksqsqh|֘AR[h񂹃R[h PIC  X(008).
    17  000170 01  ksqsqh|֘AR[h[U[R[h PIC  X(008).
    18  000180 01  ksqsqh|ƏR[h PIC S9(004) COMP-3.
    19  000190 01  ksqsqh|S҃R[h PIC  X(004).
    20  000200 01  ksqsqh|搳̎於̊ PIC  X(040).
    21  000210 01  ksqsqh|搳̎於̃Ji PIC  X(060).
    22  000220 01  ksqsqh|Е吳̗P PIC  X(040).
    23  000230 01  ksqsqh|Е吳̗Q PIC  X(020).
    24  000240 01  ksqsqh|Е吳̗Ji PIC  X(030).
Pro*COBOL: Release 9.2.0.1.0 - Production on  Apr 8 16:56:55 2005

Copyright (c) 1982, 2002, Oracle Corporation.  All rights reserved.

    25  000250 01  ksqsqh|ڋqPT[o[R[hP PIC  X(002).
    26  000260 01  ksqsqh|ڋqPڋqR[hP PIC  X(006).
    27  000270 01  ksqsqh|ڋqQT[o[R[hQ PIC  X(002).
    28  000280 01  ksqsqh|ڋqQڋqR[hQ PIC  X(006).
    29  000290 01  ksqsqh|ڋqRT[o[R[hR PIC  X(002).
    30  000300 01  ksqsqh|ڋqRڋqR[hR PIC  X(006).
    31  000310 01  ksqsqh|ڋqST[o[R[hS PIC  X(002).
    32  000320 01  ksqsqh|ڋqSڋqR[hS PIC  X(006).
    33  000330 01  ksqsqh|ڋqTT[o[R[hT PIC  X(002).
    34  000340 01  ksqsqh|ڋqTڋqR[hT PIC  X(006).
    35  000350 01  ksqsqh|o^NN PIC  X(004).
    36  000360 01  ksqsqh|o^N PIC S9(002) COMP-3.
    37  000370 01  ksqsqh|ZsR[h PIC  X(006).
    38  000380 01  ksqsqh|ZXւmne PIC  X(003).
    39  000390 01  ksqsqh|ZXւmnq PIC  X(004).
    40  000400 01  ksqsqh|ZZP PIC  X(030).
    41  000410 01  ksqsqh|ZZQ PIC  X(030).
    42  000420 01  ksqsqh|ZZJi PIC  X(050).
    43  000430 01  ksqsqh|][XR[h PIC  X(002).
    44  000440 01  ksqsqh|܏\\[gjdxʒu敪 PIC  X(001).
    45  000450 01  ksqsqh|܏\\[gjdxЋ敪 PIC  X(006).
    46  000460 01  ksqsqh|܏\\[gjdx[U PIC  X(025).
    47  000470 01  ksqsqh|O[vR[h PIC  X(008).
    48  000480 01  ksqsqh|_~[OOP PIC  X(018).
    49  000490 01  ksqsqh|ʏbocjxnst PIC  X(035).
    50  000500 01  ksqsqh|ƎR[h PIC  X(002).
    51  000510 01  ksqsqh|ƃR[h PIC  X(001).
    52  000520 01  ksqsqh|NX PIC  X(002).
    53  000530 01  ksqsqh|ݗI PIC  X(001).
    54  000540 01  ksqsqh|ݗݗ PIC  X(006).
    55  000550 01  ksqsqh|Z PIC S9(002) COMP-3.
    56  000560 01  ksqsqh|敪 PIC  X(001).
    57  000570 01  ksqsqh|dbԍ PIC  X(015).
    58  000580 01  ksqsqh|{ PIC S9(013) COMP-3.
    59  000590 01  ksqsqh|^MxPʕS PIC S9(006) COMP-3.
    60  000600 01  ksqsqh|ƐёONxƐьZ PIC S9(003) COMP-3.
    61  000610 01  ksqsqh|ƐёONxƐьZNxI PIC  X(001).
    62  000620 01  ksqsqh|ƐёONxƐьZNx PIC  X(004).
    63  000630 01  ksqsqh|ƐёONxƐє PIC S9(013) COMP-3.
    64  000640 01  ksqsqh|ƐёONxƐьo험v PIC S9(013) COMP-3.
    65  000650 01  ksqsqh|ƐёONxƐѓv PIC S9(013) COMP-3.
    66  000660 01  ksqsqh|ƐёONxƐѐ\ PIC S9(013) COMP-3.
    67  000670 01  ksqsqh|ƐёOXNxƐьZ PIC S9(003) COMP-3.
    68  000680 01  ksqsqh|ƐёOXNxƐьZNxI PIC  X(001).
    69  000690 01  ksqsqh|ƐёOXNxƐьZNx PIC  X(004).
    70  000700 01  ksqsqh|ƐёOXNxƐє PIC S9(013) COMP-3.
    71  000710 01  ksqsqh|ƐёOXNxƐьo험v PIC S9(013) COMP-3.
    72  000720 01  ksqsqh|ƐёOXNxƐѓv PIC S9(013) COMP-3.
    73  000730 01  ksqsqh|ƐёOXNxƐѐ\ PIC S9(013) COMP-3.
    74  000740 01  ksqsqh|ƐёOXXNxƐьZ PIC S9(003) COMP-3.
    75  000750 01  ksqsqh|ƐёOXXNxƐьZNxI PIC  X(001).
    76  000760 01  ksqsqh|ƐёOXXNxƐьZNx PIC  X(004).
    77  000770 01  ksqsqh|ƐёOXXNxƐє PIC S9(013) COMP-3.
    78  000780 01  ksqsqh|ƐёOXXNxƐьo험v PIC S9(013) COMP-3.
    79  000790 01  ksqsqh|ƐёOXXNxƐѓv PIC S9(013) COMP-3.
    80  000800 01  ksqsqh|ƐёOXXNxƐѐ\ PIC S9(013) COMP-3.
    81  000810 01  ksqsqh|O鍑f[^oNR[h 
    82  000820                                       PIC S9(009) COMP-3.
    83  000830 01  ksqsqh|O񒷋R[h PIC S9(005) COMP-3.
    84  000840 01  ksqsqh|O񓌋▼R[h PIC S9(006) COMP-3.
    85  000850 01  ksqsqh|O񓌋 PIC S9(003) COMP-3.
    86  000860 01  ksqsqh|O񓌋R[h PIC S9(008) COMP-3.
Pro*COBOL: Release 9.2.0.1.0 - Production on  Apr 8 16:56:55 2005

Copyright (c) 1982, 2002, Oracle Corporation.  All rights reserved.

    87  000870 01  ksqsqh|OititP PIC  X(002).
    88  000880 01  ksqsqh|OititQ PIC  X(001).
    89  000890 01  ksqsqh|Oʒm敪 PIC  X(001).
t@C: Z:\COB97\COPYLIB_DB\LTRTRI.CBLN[Y
    76  000760     EXEC  SQL  INCLUDE  D642UTG.CBL           END-EXEC.          
    77  000770                                                                  
    78  000780*--< `WJe[u>                                        
t@C: Z:\COB97\COPYLIB_DB\D642UTG.CBLI[v
     1        *****************************************************************
     2        *   `(D642UTG_TBL)
     3        *****************************************************************
     4         01  `.
     5             03  cUSQ|\_ԍ
     6                                       PIC  X(010).
     7             03  cUSQ|        PIC S9(003) PACKED-DECIMAL.
     8             03  cUSQ|R[h
     9                                       PIC  X(009).
    10             03  cUSQ|_R[h
    11                                       PIC  X(005).
    12             03  cUSQ|_於  PIC  X(040).
    13             03  cUSQ|_於̃Ji
    14                                       PIC  X(040).
    15             03  cUSQ|XR[h  PIC  X(004).
    16             03  cUSQ|_敪  PIC  X(001).
    17             03  cUSQ|`    PIC  X(001).
    18             03  cUSQ|      PIC  X(008).
    19             03  cUSQ|`[s  PIC  X(008).
    20             03  cUSQ|`    PIC  X(001).
    21             03  cUSQ|  PIC  X(008).
    22             03  cUSQ|TCN
    23                                       PIC S9(002) PACKED-DECIMAL.
    24             03  cUSQ|vz  PIC S9(013) PACKED-DECIMAL.
    25             03  cUSQ|`    PIC S9(004) PACKED-DECIMAL.
    26             03  cUSQ|旧sR[h
    27                                       PIC  X(007).
    28             03  cUSQ|xsR[h
    29                                       PIC  X(007).
    30             03  cUSQ|_ԍP  PIC  X(010).
    31             03  cUSQ|_ԍQ  PIC  X(010).
    32             03  cUSQ|_ԍR  PIC  X(010).
    33             03  cUSQ|_ԍS  PIC  X(010).
    34             03  cUSQ|_ԍT  PIC  X(010).
    35             03  cUSQ|_ԍU  PIC  X(010).
    36             03  cUSQ|_ԍV  PIC  X(010).
    37             03  cUSQ|_ԍW  PIC  X(010).
    38             03  cUSQ|_ԍX  PIC  X(010).
    39             03  cUSQ|_ԍPO
    40                                       PIC  X(010).
    41             03  cUSQ|l      PIC  X(040).
    42             03  cUSQ|`e
    43                                       PIC  X(001).
    44             03  cUSQ|o^N  PIC  X(008).
    45             03  cUSQ|o^    PIC  X(008).
    46             03  cUSQ|o^S  PIC  X(008).
    47             03  cUSQ|XVN  PIC  X(008).
    48             03  cUSQ|XV    PIC  X(008).
    49             03  cUSQ|XV      PIC  X(008).
    50             03  cUSQ|͒S҃R[h
    51                                       PIC  X(008).
    52             03  cUSQ|p敪
    53                                       PIC  X(001).
    54             03  cUSQ|UolR[h
Pro*COBOL: Release 9.2.0.1.0 - Production on  Apr 8 16:56:55 2005

Copyright (c) 1982, 2002, Oracle Corporation.  All rights reserved.

    55                                       PIC  X(009).
    56             03  cUSQ|Uol_R[h
    57                                       PIC  X(005).
    58             03  cUSQ|Uol  PIC  X(040).
    59             03  cUSQ|Uol̃Ji
    60                                       PIC  X(040).
t@C: Z:\COB97\COPYLIB_DB\D642UTG.CBLN[Y
    79  000790     EXEC  SQL  INCLUDE  D645UTT.CBL           END-EXEC.          
    80  000800                                                                  
    81  000810*--< ϊe[u(IKOTBL001)>                                     
t@C: Z:\COB97\COPYLIB_DB\D645UTT.CBLI[v
     1        *****************************************************************
     2        *   `WJ(D645UTT_TBL)
     3        *****************************************************************
     4         01  `WJ.
     5             03  cUST|\_ԍ
     6                                       PIC  X(010).
     7             03  cUST|        PIC S9(003) PACKED-DECIMAL.
     8             03  cUST|A        PIC S9(003) PACKED-DECIMAL.
     9             03  cUST|`ԍ    PIC  X(010).
    10             03  cUST|        PIC  X(008).
    11             03  cUST|z        PIC S9(013) PACKED-DECIMAL.
    12             03  cUST|UolR[h
    13                                       PIC  X(009).
    14             03  cUST|Uol_R[h
    15                                       PIC  X(005).
    16             03  cUST|Uol  PIC  X(040).
    17             03  cUST|Uol̃Ji
    18                                       PIC  X(040).
    19             03  cUST|o^N  PIC  X(008).
    20             03  cUST|o^    PIC  X(008).
    21             03  cUST|o^S  PIC  X(008).
    22             03  cUST|XVN  PIC  X(008).
    23             03  cUST|XV    PIC  X(008).
    24             03  cUST|XV      PIC  X(008).
    25             03  cUST|͒S҃R[h
    26                                       PIC  X(008).
    27             03  cUST|`    PIC  X(001).
t@C: Z:\COB97\COPYLIB_DB\D645UTT.CBLN[Y
    82  000820     EXEC  SQL  INCLUDE  IKOTBL001.CBL         END-EXEC.          
    83  000830                                                                  
    84  000840*--< Kpt@C(CISPF001) >                               
t@C: Z:\COB97\COPYLIB_DB\IKOTBL001.CBLI[v
     1  000010************************************************
     2  000020* ϊe[u(IKOTBL001)
     3  000030************************************************
     4  000040 01  hjnOOP|R[h PIC  X(008).
     5  000050 01  hjnOOP|ړIbc PIC  X(001).
     6  000060 01  hjnOOP|VR[h PIC  X(007).
     7  000070 01  hjnOOP|} PIC  X(003).
     8  000080 01  hjnOOP|^MR[h PIC  X(007).
     9  000090 01  hjnOOP|񂹃R[h PIC  X(008).
    10  000100 01  hjnOOP|[UR[h PIC  X(008).
    11  000110 01  hjnOOP|ʂbc PIC  X(001).
t@C: Z:\COB97\COPYLIB_DB\IKOTBL001.CBLN[Y
    85  000850 01  vr|                      PIC  X(05).                
    86  000860                                                                  
    87  000870*--< ϊe[u(IKOTBL001)>                                     
    88  000880 01  vr|R[h                PIC  X(08).                
    89  000890 01  vr|ړIbc                    PIC  X(01)   VALUE '2'.    
    90  000900                                                                  
    91  000910 01  vr|VR[h              PIC  X(09).                
Pro*COBOL: Release 9.2.0.1.0 - Production on  Apr 8 16:56:55 2005

Copyright (c) 1982, 2002, Oracle Corporation.  All rights reserved.

    92  000920 01  vr|_R[h                PIC  X(05).                
    93  000930 01  vr|UolR[h          PIC  X(09).                
    94  000940 01  vr|Uol_R[h          PIC  X(05).                
    95  000950*                                                                 
    96  000960     EXEC  SQL  END  DECLARE           SECTION  END-EXEC.         
    97  000970*                                                                 
    98  000980*----------------------------------------------------------------*
    99  000990*    vnqjGA                                              *
   100  001000*----------------------------------------------------------------*
   101  001010 01  vnqj|GA.                                            
   102  001020*--< G[p >                                               
   103  001030     03  v|G[R[h              PIC S9(04).                
   104  001040*                                                                 
   105  001050*--< t@C >                                               
   106  001060     03  t@C                  PIC  X(02).                
   107  001070                                                                  
   108  001080*--< tOAA >                                               
   109  001090     03  tOAA.                                            
   110  001100         05  v|I|tO          PIC  X(01).                
   111  001110         05  v|I|tOP        PIC  X(01).                
   112  001120         05  v|ُI|tO      PIC  X(01).                
   113  001130*                                                                 
   114  001140*--< GA >                                                 
   115  001150     03  GA.                                              
   116  001160         05  v|́|P          PIC  9(09).                
   117  001170         05  v|́|Q          PIC  9(09).                
   118  001180         05  v|ó|P          PIC  9(09).                
   119  001190         05  v|ó|Q          PIC  9(09).                
   120  001200*                                                                 
   121  001210*                                                                 
   122  001220*--< ʏ >                                                   
   123  001230 01  v|ʏ.                                                
   124  001240     03  v|VXet.                                        
   125  001250         05  v|I                 PIC  X(02) VALUE  "20".     
   126  001260         05  v|N               PIC  X(06).                 
   127  001270     03  v|VXe             PIC  X(08).                 
   128  001280     03  v|S                   PIC  X(08) VALUE "IKOPG   ".
   129  001290*                                                                 
   130  001300*----------------------------------------------------------------*
   131  001310*    Tu[`                                              *
   132  001320*----------------------------------------------------------------*
   133  001330 01  CALL-AREA.                                                   
   134  001340*--< ʃOTu[` >                                       
   135  001350     03  CLOCO001                     PIC  X(08) VALUE "CLOCO001".
   136  001360     03  COBCO001                     PIC  X(08) VALUE "COBCO001".
   137  001370*                                                                 
   138  001380*----------------------------------------------------------------*
   139  001390*    bnoẍ                                                *
   140  001400*----------------------------------------------------------------*
   141  001410*--< ʃOpp[^ >                                       
   142  001420 01  IF-CHOCO001.                                                 
   143  001430     COPY  CHOCO001  REPLACING  ==()==  BY  ==P|==.           
   144  001440*                                                                 
   145  001450*----------------------------------------------------------------*
   146  001460*    hmht@CǍTu[`pp^̈                *
   147  001470*----------------------------------------------------------------*
   148  001480 01  PARA-AREA.                                                   
   149  001490     COPY CPBCO001.                                               
   150  001500******************************************************************
   151  001510*    萔pf[^`GA                                      *
   152  001520******************************************************************
   153  001530 CONSTANT                              SECTION.                   
Pro*COBOL: Release 9.2.0.1.0 - Production on  Apr 8 16:56:55 2005

Copyright (c) 1982, 2002, Oracle Corporation.  All rights reserved.

   154  001540 01  萔̈.                                                    
   155  001550     03  萔|vOhc         PIC  X(08) VALUE "COBIS631".
   156  001560     03  萔|vO           PIC  X(80)                  
   157  001570                                    VALUE  "t@N^O쐬".
   158  001580     03  萔|rpknj             PIC S9(04)  VALUE  ZERO.    
   159  001590     03  萔|rpkdmc           PIC S9(04)  VALUE  0100.    
   160  001600     03  萔|               PIC S9(04)  VALUE  ZERO.    
   161  001610     03  萔|ُ               PIC S9(04)  VALUE  0009.    
   162  001620******************************************************************
   163  001630*    oqnbdctqd            chuhrhnm              *
   164  001640******************************************************************
   165  001650 PROCEDURE                            DIVISION.                   
   166  001660*                                                                 
   167  001670     PERFORM  .                                           
   168  001680*                                                                 
   169  001690     PERFORM  又  UNTIL  v|I|tO  =  "Y".            
   170  001700*                                                                 
   171  001710     PERFORM  I.                                           
   172  001720*                                                                 
   173  001730     STOP     RUN.                                                
   174  001740*                                                                 
   175  001750******************************************************************
   176  001760*                                                        *
   177  001770******************************************************************
   178  001780                              SECTION.                    
   179  001790 |rs`qs.                                            
   180  001800*                                                                 
   181  001810*----------------------------------------------------------------*
   182  001820*    JnbZ[Wo͏                                      *
   183  001830*----------------------------------------------------------------*
   184  001840     INITIALIZE                       IF-CHOCO001.                
   185  001850     MOVE  "3"                        TO  P|Cxg.     
   186  001860     MOVE  萔|vOhc       TO  P|\[Xhc.       
   187  001870     MOVE  "0"                        TO  P|AR[h.       
   188  001880     MOVE  "START"                    TO  P|.         
   189  001890     MOVE  萔|vO         TO  P|̑bZ[W. 
   190  001900     CALL  CLOCO001                USING  IF-CHOCO001.            
   191  001910*                                                                 
   192  001920*----------------------------------------------------------------*
   193  001930*    Ɨ̈̏l                                        *
   194  001940*----------------------------------------------------------------*
   195  001950     MOVE  SPACE                      TO  vnqj|GA.       
   196  001960     INITIALIZE                           vnqj|GA.       
   197  001970*                                                                 
   198  001980*                                                                 
   199  001990*--< bott擾 >                                           
   200  002000     ACCEPT  v|N               FROM  DATE.                 
   201  002010*                                                                 
   202  002020*--< bot擾 >                                           
   203  002030     ACCEPT  v|VXe         FROM  TIME.                 
   204  002040*                                                                 
   205  002050*--< nq`bkdڑ >                                           
   206  002060     PERFORM   nq`bkdڑ.                                  
   207  002070*                                                                 
   208  002080*--< t@CI[v >                                           
   209  002090     OPEN  INPUT  ̓t@C.                                   
   210  002100*                                                                 
   211  002110*----------------------------------------------------------------*
   212  002120*    t@CI[vԔ                                    *
   213  002130*----------------------------------------------------------------*
   214  002140     EVALUATE  t@C                                       
   215  002150        WHEN  ZERO                                                
Pro*COBOL: Release 9.2.0.1.0 - Production on  Apr 8 16:56:55 2005

Copyright (c) 1982, 2002, Oracle Corporation.  All rights reserved.

   216  002160           CONTINUE                                               
   217  002170        WHEN  OTHER                                               
   218  002180*--<       t@CI[vG[ >                               
   219  002190           MOVE     -5                TO  v|G[R[h        
   220  002200           PERFORM  G[菈                                
   221  002210     END-EVALUATE.                                                
   222  002220                                                                  
   223  002230*----------------------------------------------------------------*
   224  002240*    KpǍ(P)                                  *
   225  002250*----------------------------------------------------------------*
   226  002260     PERFORM   Ǎ.                                    
   227  002270                                                                  
   228  002280*--< e[uJ[\` >                                   
   229  002290     PERFORM  e[uJ[\`.                           
   230  002300*                                                                 
   231  002310*--< e[uJ[\Ǎ(P) >                           
   232  002320     PERFORM  e[uJ[\Ǎ.                           
   233  002330*                                                                 
   234  002340 |dwhs.                                              
   235  002350     EXIT.                                                        
   236  002360******************************************************************
   237  002370*    nq`bkdڑ                                            *
   238  002380******************************************************************
   239  002390 nq`bkdڑ                     SECTION.                    
   240  002400 nq`bkdڑ|rs`qs.                                    
   241  002410*                                                                 
   242  002420*--< caڑp擾 >                                   
   243  002430     CALL  COBCO001                USING  PARA-AREA.              
   244  002440*                                                                 
   245  002450     MOVE  PARA-DBSTRING              TO  DB-STRING.              
   246  002460     MOVE  PARA-USERNAME              TO  USERNAME.               
   247  002470     MOVE  PARA-PASSWORD              TO  PASSWD.                 
   248  002480*                                                                 
   249  002490*----------------------------------------------------------------*
   250  002500*    Jnڑ                                                    *
   251  002510*----------------------------------------------------------------*
   252  002520     IF    DB-STRING  =  SPACE                                    
   253  002530        EXEC SQL                                                  
   254  002540           CONNECT  :USERNAME IDENTIFIED BY :PASSWD               
   255  002550        END-EXEC                                                  
   256  002560     ELSE                                                         
   257  002570        EXEC SQL                                                  
   258  002580           CONNECT  :USERNAME IDENTIFIED BY :PASSWD               
   259  002590             USING  :DB-STRING                                    
   260  002600        END-EXEC                                                  
   261  002610     END-IF.                                                      
   262  002620*                                                                 
   263  002630*----------------------------------------------------------------*
   264  002640*    ڑmF                                                    *
   265  002650*----------------------------------------------------------------*
   266  002660     EVALUATE  SQLCODE                                            
   267  002670        WHEN   萔|rpknj                                   
   268  002680           CONTINUE                                               
   269  002690        WHEN   OTHER                                              
   270  002700*--<       ڑG[ >                                           
   271  002710           MOVE     -10               TO  v|G[R[h        
   272  002720           PERFORM  G[菈                                
   273  002730     END-EVALUATE.                                                
   274  002740*                                                                 
   275  002750 nq`bkdڑ|dwhs.                                      
   276  002760     EXIT.                                                        
   277  002770******************************************************************
Pro*COBOL: Release 9.2.0.1.0 - Production on  Apr 8 16:56:55 2005

Copyright (c) 1982, 2002, Oracle Corporation.  All rights reserved.

   278  002780*        e[uJ[\`                                *
   279  002790******************************************************************
   280  002800 e[uJ[\`             SECTION.                    
   281  002810 e[uJ[\`|rs`qs.                            
   282  002820*                                                                 
   283  002830*----------------------------------------------------------------*
   284  002840*    J[\nodm                                        *
   285  002850*----------------------------------------------------------------*
   286  002860     EXEC SQL                                                     
   287  002870        DECLARE CUR1  CURSOR FOR                                  
   288  002880          SELECT   LTRFCK._ԍ                                
   289  002890                  ,LTRFCK.[U[R[h                          
   290  002900                  ,NVL(LTRTRI.搳̎於̊        
   291  002910                                              ,RPAD(' ',1,' '))   
   292  002920                  ,NVL(LTRTRI.搳̎於̃Ji        
   293  002930                                              ,RPAD(' ',1,' '))   
   294  002940                  ,LTRFCK.ƏR[h                            
   295  002950                  ,LTRFCK.s                                  
   296  002960                  ,NVL(LTRFCT.`,0)                         
   297  002970                  ,NVL(LTRFCT.,RPAD('0',7,'0'))           
   298  002980                  ,LTRFCK.zʋz                                
   299  002990                  ,LTRFCK.sR[h                              
   300  003000                  ,NVL(LTRFCT.sR[h,RPAD('0',7,'0'))     
   301  003010                  ,LTRFCK.҃R[h                          
   302  003020                  ,NVL(LTRFCT.xl,RPAD(' ',60,' '))          
   303  003030                  ,NVL(LTRFCT.`ԍ,RPAD('0',10,'0'))          
   304  003040                  ,LTRFCK.                                    
   305  003050                  ,LTRFCK.zʋz                                
   306  003060                                                                  
   307  003070            FROM  LTRFCK                                          
   308  003080                 ,LTRFCT                                          
   309  003090                 ,LTRTRI                                          
   310  003100           WHERE  LTRFCK._ԍ   =    LTRFCT._ԍ(+)       
   311  003110             AND  LTRTRI.R[h(+) = LTRFCK.[U[R[h  
   312  003120        ORDER BY  LTRFCK._ԍ                                 
   313  003130     END-EXEC.                                                    
   314  003140                                                                  
   315  003150*----------------------------------------------------------------*
   316  003160*    J[\nodm                                        *
   317  003170*----------------------------------------------------------------*
   318  003180     EXEC  SQL                                                    
   319  003190        OPEN  CUR1                                                
   320  003200     END-EXEC.                                                    
   321  003210*                                                                 
   322  003220*----------------------------------------------------------------*
   323  003230*    J[\nodmmF                                        *
   324  003240*----------------------------------------------------------------*
   325  003250     EVALUATE  SQLCODE                                            
   326  003260        WHEN  萔|rpknj                                    
   327  003270*--<        >                                                 
   328  003280           CONTINUE                                               
   329  003290        WHEN  OTHER                                               
   330  003300*--<       J[\nodmG[ >                               
   331  003310           MOVE -20                   TO  v|G[R[h        
   332  003320           PERFORM  G[菈                                
   333  003330     END-EVALUATE.                                                
   334  003340*                                                                 
   335  003350 e[uJ[\`|dwhs.                              
   336  003360     EXIT.                                                        
   337  003370******************************************************************
   338  003380*    e[uJ[\Ǎ                                    *
   339  003390******************************************************************
Pro*COBOL: Release 9.2.0.1.0 - Production on  Apr 8 16:56:55 2005

Copyright (c) 1982, 2002, Oracle Corporation.  All rights reserved.

   340  003400 e[uJ[\Ǎ             SECTION.                    
   341  003410 e[uJ[\Ǎ|rs`qs.                            
   342  003420*                                                                 
   343  003430*--< e[uJ[\Ǎ >                                   
   344  003440     EXEC SQL                                                     
   345  003450         FETCH  CUR1                                              
   346  003460          INTO  :ksqebj|_ԍ                           
   347  003470               ,:ksqebj|[U[R[h                     
   348  003480               ,:ksqsqh|搳̎於̊       
   349  003490               ,:ksqsqh|搳̎於̃Ji       
   350  003500               ,:ksqebj|ƏR[h                       
   351  003510               ,:ksqebj|s                             
   352  003520               ,:ksqebs|`                           
   353  003530               ,:ksqebs|                           
   354  003540               ,:ksqebj|zʋz                           
   355  003550               ,:ksqebj|sR[h                         
   356  003560               ,:ksqebs|sR[h                     
   357  003570               ,:ksqebj|҃R[h                     
   358  003580               ,:ksqebs|xl                           
   359  003590               ,:ksqebs|`ԍ                           
   360  003600               ,:ksqebj|                               
   361  003610               ,:ksqebj|zʋz                           
   362  003620                                                                  
   363  003630     END-EXEC.                                                    
   364  003640*                                                                 
   365  003650*----------------------------------------------------------------*
   366  003660*    e[uJ[\ǍmF                              *
   367  003670*----------------------------------------------------------------*
   368  003680     EVALUATE   SQLCODE                                           
   369  003690        WHEN   萔|rpknj                                   
   370  003700*--<        >                                                 
   371  003710*                                                                 
   372  003720           COMPUTE  v|́|P  =  v|́|P  +  1   
   373  003730        WHEN   萔|rpkdmc                                 
   374  003740*--<       ǍI >                                             
   375  003750           MOVE  "Y"                  TO  v|I|tO        
   376  003760        WHEN   OTHER                                              
   377  003770*--<       ǍG[ >                                           
   378  003780           MOVE     -30               TO  v|G[R[h        
   379  003790           PERFORM  G[菈                                
   380  003800     END-EVALUATE.                                                
   381  003810*                                                                 
   382  003820 e[uJ[\Ǎ|dwhs.                              
   383  003830     EXIT.                                                        
   384  003840                                                                  
   385  003850******************************************************************
   386  003860*    KpǍ        (CISPF001)                        *
   387  003870******************************************************************
   388  003880 Ǎ                       SECTION.                    
   389  003890 Ǎ|rs`qs.                                      
   390  003900*--<    Ǎ >                                              
   391  003910        READ  ̓t@C                                        
   392  003920           AT  END                                                
   393  003930*--<          ǍI >                                          
   394  003940              MOVE  "Y"               TO  v|I|tOP      
   395  003950              GO  TO  Ǎ|dwhs                    
   396  003960           NOT  AT  END                                           
   397  003970              COMPUTE  v|́|Q  =  v|́|Q + 1  
   398  003980        END-READ.                                                 
   399  003990*                                                                 
   400  004000*----------------------------------------------------------------*
   401  004010*    t@CI[vԔ                                    *
Pro*COBOL: Release 9.2.0.1.0 - Production on  Apr 8 16:56:55 2005

Copyright (c) 1982, 2002, Oracle Corporation.  All rights reserved.

   402  004020*----------------------------------------------------------------*
   403  004030     EVALUATE  t@C                                       
   404  004040        WHEN  ZERO                                                
   405  004050*--<       >                                            
   406  004060           IF ́|(1:2) = "19"                            
   407  004070             MOVE  "0"                TO  vr|(1:1)       
   408  004080           ELSE                                                   
   409  004090             IF ́|(1:2) = "20"                          
   410  004100               MOVE  "1"              TO  vr|(1:1)       
   411  004110             END-IF                                               
   412  004120           END-IF                                                 
   413  004130           MOVE  ́|(3:4)    TO  vr|(2:4)       
   414  004140        WHEN  OTHER                                               
   415  004150*--<       ǂݍ݃G[ >                                       
   416  004160           MOVE     ZERO              TO  vr|            
   417  004170           MOVE     -8                TO  v|G[R[h        
   418  004180           PERFORM  G[菈                                
   419  004190     END-EVALUATE.                                                
   420  004200*                                                                 
   421  004210 Ǎ|dwhs.                                        
   422  004220     EXIT.                                                        
   423  004230                                                                  
   424  004240******************************************************************
   425  004250*    又                                                      *
   426  004260******************************************************************
   427  004270 又                               SECTION.                    
   428  004280 又|rs`qs.                                              
   429  004290*                                                                 
   430  004300     PERFORM  .                                       
   431  004310     PERFORM  VR[ha_R[ho.               
   432  004320     PERFORM  UolR[haUol_R[h.             
   433  004330     PERFORM  ϊ.                                       
   434  004340     PERFORM  ҏWo͏.                                       
   435  004350*                                                                 
   436  004360     PERFORM  o͏.                                           
   437  004370                                                                  
   438  004380*--< e[uJ[\ǍiQڈȍ~j >                     
   439  004390     PERFORM  e[uJ[\Ǎ.                           
   440  004400*                                                                 
   441  004410*                                                                 
   442  004420 又|dwhs.                                                
   443  004430     EXIT.                                                        
   444  004440                                                                  
   445  004450******************************************************************
   446  004460*    *                                                
   447  004470******************************************************************
   448  004480                                                                  
   449  004490                          SECTION.                    
   450  004500 |rs`qs.                                        
   451  004510*                                                                 
   452  004520*--<  >                                               
   453  004530     IF ksqebs|(1:5)   NOT <  vr|         
   454  004540       CONTINUE                                                   
   455  004550     ELSE                                                         
   456  004560       MOVE  ZERO   TO       ksqebs|`               
   457  004570       MOVE  ZERO   TO       ksqebs|               
   458  004580       MOVE  ZERO   TO       ksqebs|sR[h         
   459  004590       MOVE  SPACE  TO       ksqebs|xl               
   460  004600       MOVE  ZERO   TO       ksqebs|`ԍ               
   461  004610     END-IF.                                                      
   462  004620                                                                  
   463  004630 |dwhs.                                          
Pro*COBOL: Release 9.2.0.1.0 - Production on  Apr 8 16:56:55 2005

Copyright (c) 1982, 2002, Oracle Corporation.  All rights reserved.

   464  004640     EXIT.                                                        
   465  004650******************************************************************
   466  004660*    ϊe[u(IKOTBL001) VR[ha_R[ho*
   467  004670******************************************************************
   468  004680                                                                  
   469  004690 VR[ha_R[ho  SECTION.                   
   470  004700 VR[ha_R[ho|rs`qs.                
   471  004710*                                                                 
   472  004720     MOVE  SPACE                       TO  vr|VR[h.  
   473  004730     INITIALIZE                            vr|VR[h.  
   474  004740     MOVE  SPACE                       TO  vr|_R[h.    
   475  004750     INITIALIZE                            vr|_R[h.    
   476  004760                                                                  
   477  004770*--< VR[ha_R[ho >                       
   478  004780     EXEC SQL                                                     
   479  004790           SELECT  NVL(IKOTBL001.VR[h,RPAD('0',7,'0'))  
   480  004800                  ,NVL(IKOTBL001.},RPAD('0',3,'0'))            
   481  004810             INTO  :vr|VR[h                          
   482  004820                  ,:vr|_R[h                            
   483  004830             FROM  IKOTBL001                                      
   484  004840            WHERE  IKOTBL001.R[h                         
   485  004850                                 =  :ksqebj|[U[R[h 
   486  004860              AND  IKOTBL001.ړIbc                             
   487  004870                              =  :vr|ړIbc                  
   488  004880     END-EXEC.                                                    
   489  004890                                                                  
   490  004900*--<       SQLCODE菈 >                                      
   491  004910     EVALUATE  SQLCODE                                            
   492  004920        WHEN  萔|rpknj                                    
   493  004930*--<        >                                                 
   494  004940           CONTINUE                                               
   495  004950        WHEN  OTHER                                               
   496  004960*--<       s`akd  rdkdbs  G[ >                     
   497  004970           MOVE -50                    TO  v|G[R[h       
   498  004980           PERFORM  G[菈                                
   499  004990     END-EVALUATE.                                                
   500  005000                                                                  
   501  005010 VR[ha_R[ho|dwhs.                  
   502  005020     EXIT.                                                        
   503  005030                                                                  
   504  005040******************************************************************
   505  005050*   ϊe[u(IKOTBL001)UolR[haUol_R[h*
   506  005060******************************************************************
   507  005070                                                                  
   508  005080 UolR[haUol_R[h     SECTION.              
   509  005090 UolR[haUol_R[h|rs`qs.              
   510  005100*                                                                 
   511  005110     MOVE  SPACE                    TO  vr|UolR[h. 
   512  005120     INITIALIZE                         vr|UolR[h. 
   513  005130     MOVE  SPACE                    TO  vr|Uol_R[h. 
   514  005140     INITIALIZE                         vr|Uol_R[h. 
   515  005150                                                                  
   516  005160*--< Uol_R[haUol_R[ho >             
   517  005170     EXEC SQL                                                     
   518  005180           SELECT  NVL(IKOTBL001.VR[h,RPAD('0',7,'0'))  
   519  005190                  ,NVL(IKOTBL001.},RPAD('0',3,'0'))            
   520  005200             INTO  :vr|UolR[h                      
   521  005210                  ,:vr|Uol_R[h                      
   522  005220             FROM  IKOTBL001                                      
   523  005230            WHERE  IKOTBL001.R[h                         
   524  005240                                 =  :ksqebj|҃R[h 
   525  005250              AND  IKOTBL001.ړIbc                             
Pro*COBOL: Release 9.2.0.1.0 - Production on  Apr 8 16:56:55 2005

Copyright (c) 1982, 2002, Oracle Corporation.  All rights reserved.

   526  005260                              =  :vr|ړIbc                  
   527  005270     END-EXEC.                                                    
   528  005280                                                                  
   529  005290*--<       SQLCODE菈 >                                      
   530  005300     EVALUATE  SQLCODE                                            
   531  005310        WHEN  萔|rpknj                                    
   532  005320*--<        >                                                 
   533  005330           CONTINUE                                               
   534  005340        WHEN  OTHER                                               
   535  005350*--<       s`akd  rdkdbs  G[ >                     
   536  005360           MOVE -60                    TO  v|G[R[h       
   537  005370           PERFORM  G[菈                                
   538  005380     END-EVALUATE.                                                
   539  005390                                                                  
   540  005400 UolR[haUol_R[h|dwhs.                
   541  005410     EXIT.                                                        
   542  005420                                                                  
   543  005430******************************************************************
   544  005440*    ϊ*                                                
   545  005450******************************************************************
   546  005460                                                                  
   547  005470 ϊ                          SECTION.                   
   548  005480 ϊ|rs`qs.                                        
   549  005490*                                                                 
   550  005500*--< ksqebj|s >                                   
   551  005510     IF ksqebj|s(1:1) = "0"                           
   552  005520       MOVE "19"                       TO  cUSQ|(1:2)  
   553  005530       MOVE ksqebj|s(2:6)                             
   554  005540                                       TO  cUSQ|(3:6)  
   555  005550       MOVE "19"                       TO                         
   556  005560                                       cUSQ|`[s(1:2)  
   557  005570       MOVE ksqebj|s(2:6)  TO                         
   558  005580                                       cUSQ|`[s(3:6)  
   559  005590     ELSE                                                         
   560  005600       IF ksqebj|s(1:1) = "1"                         
   561  005610         MOVE "20"                     TO  cUSQ|(1:2)  
   562  005620         MOVE ksqebj|s(2:6)                           
   563  005630                                       TO cUSQ|(3:6)   
   564  005640         MOVE "20"                     TO                         
   565  005650                                       cUSQ|`[s(1:2)  
   566  005660         MOVE ksqebj|s(2:6)                           
   567  005670                                       TO                         
   568  005680                                       cUSQ|`[s(3:6)  
   569  005690       END-IF                                                     
   570  005700     END-IF.                                                      
   571  005710                                                                  
   572  005720*--< ksqebs| >                                     
   573  005730     IF ksqebs|(1:1) = "0"                         
   574  005740       MOVE "19"                       TO                         
   575  005750                                       cUSQ|(1:2)  
   576  005760       MOVE ksqebj|s(2:6)  TO                         
   577  005770                                       cUSQ|(3:6)  
   578  005780     ELSE                                                         
   579  005790       IF ksqebs|(1:1) = "1"                       
   580  005800         MOVE "20"                     TO                         
   581  005810                                       cUSQ|(1:2)  
   582  005820         MOVE ksqebj|s(2:6)                           
   583  005830                                       TO                         
   584  005840                                       cUSQ|(3:6)  
   585  005850       END-IF                                                     
   586  005860     END-IF.                                                      
   587  005870                                                                  
Pro*COBOL: Release 9.2.0.1.0 - Production on  Apr 8 16:56:55 2005

Copyright (c) 1982, 2002, Oracle Corporation.  All rights reserved.

   588  005880*--< ksqebj| >                                         
   589  005890     IF ksqebj|(1:1) = "0"                             
   590  005900       MOVE "19"                       TO  cUST|(1:2)    
   591  005910       MOVE ksqebj|(2:6)    TO  cUST|(3:6)    
   592  005920     ELSE                                                         
   593  005930       IF ksqebj|(1:1) = "1"                           
   594  005940         MOVE "20"                     TO  cUST|(1:2)    
   595  005950         MOVE ksqebj|(2:6)  TO  cUST|(3:6)    
   596  005960       END-IF                                                     
   597  005970     END-IF.                                                      
   598  005980                                                                  
   599  005990 ϊ|dwhs.                                          
   600  006000     EXIT.                                                        
   601  006010                                                                  
   602  006020******************************************************************
   603  006030*     ҏWo͏                                               *
   604  006040******************************************************************
   605  006050 ҏWo͏                          SECTION.                   
   606  006060 ҏWo͏|rs`qs.                                        
   607  006070*                                                                 
   608  006080                                                                  
   609  006090*----------------------------------------------------------------*
   610  006100*       ڕҏW  `(D642UTG_TBL)                      *
   611  006110*----------------------------------------------------------------*
   612  006120*--<    No.01 >                                                   
   613  006130        MOVE  ksqebj|_ԍ  TO  cUSQ|\_ԍ. 
   614  006140*--<    No.02 >                                                   
   615  006150        MOVE  1                       TO  cUSQ|.         
   616  006160*--<    No.03 >                                                   
   617  006170        MOVE  vr|VR[h    TO  cUSQ|R[h. 
   618  006180*--<    No.04 >                                                   
   619  006190        MOVE  vr|_R[h      TO  cUSQ|_R[h. 
   620  006200*--<    No.05 >                                                   
   621  006210        MOVE  ksqsqh|搳̎於̊          
   622  006220                                      TO  cUSQ|_於.   
   623  006230*--<    No.06 >                                                   
   624  006240        MOVE  ksqsqh|搳̎於̃Ji          
   625  006250                                      TO                          
   626  006260                                        cUSQ|_於̃Ji. 
   627  006270*--<    No.07 >                                                   
   628  006280        MOVE  ksqebj|ƏR[h                          
   629  006290                                      TO  cUSQ|XR[h.   
   630  006300*--<    No.8 >                                                    
   631  006310        MOVE  "8"                     TO  cUSQ|_敪.   
   632  006320*--<    No.9 >                                                    
   633  006330        MOVE  "0"                     TO  cUSQ|`.     
   634  006340*--<    No.12 >                                                   
   635  006350        MOVE  ksqebs|`  TO  cUSQ|`.     
   636  006360*--<    No.14 >                                                   
   637  006370        MOVE  1                       TO  cUSQ|TCN. 
   638  006380*--<    No.15 >                                                   
   639  006390        MOVE  ksqebj|zʋz  TO  cUSQ|vz.   
   640  006400*--<    No.16 >                                                   
   641  006410        MOVE  1                       TO  cUSQ|`.     
   642  006420                                                                  
   643  006430*--<    No.17 >                                                   
   644  006440        MOVE  ksqebj|sR[h                            
   645  006450                                      TO                          
   646  006460                                       cUSQ|旧sR[h.  
   647  006470*--<    No.18 >                                                   
   648  006480        MOVE  ksqebs|sR[h                        
   649  006490                                      TO                          
Pro*COBOL: Release 9.2.0.1.0 - Production on  Apr 8 16:56:55 2005

Copyright (c) 1982, 2002, Oracle Corporation.  All rights reserved.

   650  006500                                       cUSQ|xsR[h.  
   651  006510*--<    No.19 >                                                   
   652  006520        MOVE  ksqebj|_ԍ  TO  cUSQ|_ԍP.   
   653  006530*--<    No.20 >                                                   
   654  006540        MOVE  ZERO                    TO  cUSQ|_ԍQ.   
   655  006550*--<    No.21 >                                                   
   656  006560        MOVE  ZERO                    TO  cUSQ|_ԍR.   
   657  006570*--<    No.22 >                                                   
   658  006580        MOVE  ZERO                    TO  cUSQ|_ԍS.   
   659  006590*--<    No.23 >                                                   
   660  006600        MOVE  ZERO                    TO  cUSQ|_ԍT.   
   661  006610*--<    No.24 >                                                   
   662  006620        MOVE  ZERO                    TO  cUSQ|_ԍU.   
   663  006630*--<    No.25 >                                                   
   664  006640        MOVE  ZERO                    TO  cUSQ|_ԍV.   
   665  006650*--<    No.26 >                                                   
   666  006660        MOVE  ZERO                    TO  cUSQ|_ԍW.   
   667  006670*--<    No.27 >                                                   
   668  006680        MOVE  ZERO                    TO  cUSQ|_ԍX.   
   669  006690*--<    No.28 >                                                   
   670  006700        MOVE  ZERO                    TO  cUSQ|_ԍPO. 
   671  006710*--<    No.29 >                                                   
   672  006720        MOVE  SPACE                   TO  cUSQ|l.       
   673  006730*--<    No.30 >                                                   
   674  006740        MOVE  ZERO                    TO  cUSQ|`e. 
   675  006750*--<    No.31 >                                                   
   676  006760        MOVE  v|VXet        TO  cUSQ|o^N.   
   677  006770*--<    No.92 >                                                   
   678  006780        MOVE  v|VXe        TO  cUSQ|o^.     
   679  006790*--<    No.33 >                                                   
   680  006800        MOVE  v|S              TO  cUSQ|o^S.   
   681  006810*--<    No.34 >                                                   
   682  006820        MOVE  v|VXet        TO  cUSQ|XVN.   
   683  006830*--<    No.35 >                                                   
   684  006840        MOVE  v|VXe        TO  cUSQ|XV.     
   685  006850*--<    No.36 >                                                   
   686  006860        MOVE  v|S              TO  cUSQ|XV.       
   687  006870*--<    No.37 >                                                   
   688  006880        MOVE  v|S              TO                          
   689  006890                                      cUSQ|͒S҃R[h. 
   690  006900*--<    No.38>                                                    
   691  006910        MOVE  ZERO                    TO  cUSQ|p敪. 
   692  006920*--<    No.39 >                                                   
   693  006930        MOVE  vr|UolR[h                            
   694  006940                                      TO                          
   695  006950                                    cUSQ|UolR[h. 
   696  006960*--<    No.40 >                                                   
   697  006970        MOVE  vr|Uol_R[h                            
   698  006980                                      TO                          
   699  006990                                    cUSQ|Uol_R[h. 
   700  007000*--<    No.41 >                                                   
   701  007010        MOVE  ksqebs|xl  TO  cUSQ|Uol.   
   702  007020*--<    No.42 >                                                   
   703  007030        MOVE  SPACE                   TO                          
   704  007040                                      cUSQ|Uol̃Ji.   
   705  007050                                                                  
   706  007060*----------------------------------------------------------------*
   707  007070*       ڕҏW  `WJ(D645UTT_TBL)                  *
   708  007080*----------------------------------------------------------------*
   709  007090*--<    No.01 >                                                   
   710  007100        MOVE   ksqebj|_ԍ                             
   711  007110                                      TO   cUST|\_ԍ.
Pro*COBOL: Release 9.2.0.1.0 - Production on  Apr 8 16:56:55 2005

Copyright (c) 1982, 2002, Oracle Corporation.  All rights reserved.

   712  007120*--<    No.02 >                                                   
   713  007130        MOVE   1                                                  
   714  007140                                      TO   cUST|.        
   715  007150*--<    No.03 >                                                   
   716  007160        MOVE   1                                                  
   717  007170                                      TO   cUST|A.        
   718  007180*--<    No.04 >                                                   
   719  007190        MOVE   ksqebs|`ԍ                             
   720  007200                                      TO   cUST|`ԍ.    
   721  007210*--<    No.05 >                                                   
   722  007220                                                                  
   723  007230*--<    No.06 >                                                   
   724  007240        MOVE   ksqebj|zʋz                             
   725  007250                                      TO   cUST|z.        
   726  007260*--<    No.07 >                                                   
   727  007270        MOVE   vr|UolR[h                           
   728  007280                                      TO                          
   729  007290                                    cUST|UolR[h. 
   730  007300*--<    No.08 >                                                   
   731  007310        MOVE   vr|Uol_R[h                           
   732  007320                                      TO                          
   733  007330                                    cUST|Uol_R[h. 
   734  007340*--<    No.09 >                                                   
   735  007350        MOVE   ksqebs|xl TO   cUST|Uol.  
   736  007360*--<    No.10 >                                                   
   737  007370        MOVE   SPACE                  TO                          
   738  007380                                      cUST|Uol̃Ji.   
   739  007390*--<    No.11 >                                                   
   740  007400        MOVE   v|VXet       TO   cUST|o^N.  
   741  007410*--<    No.12 >                                                   
   742  007420        MOVE   v|VXe       TO   cUST|o^.    
   743  007430*--<    No.13 >                                                   
   744  007440        MOVE   v|S             TO   cUST|o^S.  
   745  007450*--<    No.14 >                                                   
   746  007460        MOVE   v|VXet       TO   cUST|XVN.  
   747  007470*--<    No.15 >                                                   
   748  007480        MOVE   v|VXe       TO   cUST|XV.    
   749  007490*--<    No.16 >                                                   
   750  007500        MOVE   v|S             TO   cUST|XV.      
   751  007510*--<    No.17 >                                                   
   752  007520        MOVE   v|S             TO                          
   753  007530                                     cUST|͒S҃R[h.  
   754  007540*--<    No.18 >                                                   
   755  007550        MOVE   ZERO                   TO   cUST|`.    
   756  007560                                                                  
   757  007570 ҏWo͏|dwhs.                                          
   758  007580     EXIT.                                                        
   759  007590******************************************************************
   760  007600*    o͏                                                    *
   761  007610******************************************************************
   762  007620 o͏                             SECTION.                    
   763  007630 o͏|rs`qs.                                            
   764  007640*                                                                 
   765  007650*----------------------------------------------------------------*
   766  007660*       ڏ  `(D642UTG_TBL)                          *
   767  007670*----------------------------------------------------------------*
   768  007680       EXEC  SQL                                                  
   769  007690        INSERT  INTO  D642UTG_TBL                                 
   770  007700           (  \_ԍ                                        
   771  007710             ,                                                
   772  007720             ,R[h                                        
   773  007730             ,_R[h                                        
Pro*COBOL: Release 9.2.0.1.0 - Production on  Apr 8 16:56:55 2005

Copyright (c) 1982, 2002, Oracle Corporation.  All rights reserved.

   774  007740             ,_於                                          
   775  007750             ,_於̃Ji                                      
   776  007760             ,XR[h                                          
   777  007770             ,_敪                                          
   778  007780             ,`                                            
   779  007790             ,                                              
   780  007800             ,`[s                                          
   781  007810             ,`                                            
   782  007820             ,                                          
   783  007830             ,TCN                                        
   784  007840             ,vz                                          
   785  007850             ,`                                            
   786  007860             ,旧sR[h                                      
   787  007870             ,xsR[h                                      
   788  007880             ,_ԍP                                          
   789  007890             ,_ԍQ                                          
   790  007900             ,_ԍR                                          
   791  007910             ,_ԍS                                          
   792  007920             ,_ԍT                                          
   793  007930             ,_ԍU                                          
   794  007940             ,_ԍV                                          
   795  007950             ,_ԍW                                          
   796  007960             ,_ԍX                                          
   797  007970             ,_ԍPO                                        
   798  007980             ,l                                              
   799  007990             ,`e                                        
   800  008000             ,o^N                                          
   801  008010             ,o^                                            
   802  008020             ,o^S                                          
   803  008030             ,XVN                                          
   804  008040             ,XV                                            
   805  008050             ,XV                                              
   806  008060             ,͒S҃R[h                                    
   807  008070             ,p敪                                        
   808  008080             ,UolR[h                                  
   809  008090             ,Uol_R[h                                  
   810  008100             ,Uol                                          
   811  008110             ,Uol̃Ji)                                     
   812  008120       VALUES                                                     
   813  008130           (  :cUSQ|\_ԍ                             
   814  008140             ,:cUSQ|                                     
   815  008150             ,:cUSQ|R[h                             
   816  008160             ,:cUSQ|_R[h                             
   817  008170             ,:cUSQ|_於                               
   818  008180             ,:cUSQ|_於̃Ji                           
   819  008190             ,:cUSQ|XR[h                               
   820  008200             ,:cUSQ|_敪                               
   821  008210             ,:cUSQ|`                                 
   822  008220             ,:cUSQ|                                   
   823  008230             ,:cUSQ|`[s                               
   824  008240             ,:cUSQ|`                                 
   825  008250             ,:cUSQ|                               
   826  008260             ,:cUSQ|TCN                             
   827  008270             ,:cUSQ|vz                               
   828  008280             ,:cUSQ|`                                 
   829  008290             ,:cUSQ|旧sR[h                           
   830  008300             ,:cUSQ|xsR[h                           
   831  008310             ,:cUSQ|_ԍP                               
   832  008320             ,:cUSQ|_ԍQ                               
   833  008330             ,:cUSQ|_ԍR                               
   834  008340             ,:cUSQ|_ԍS                               
   835  008350             ,:cUSQ|_ԍT                               
Pro*COBOL: Release 9.2.0.1.0 - Production on  Apr 8 16:56:55 2005

Copyright (c) 1982, 2002, Oracle Corporation.  All rights reserved.

   836  008360             ,:cUSQ|_ԍU                               
   837  008370             ,:cUSQ|_ԍV                               
   838  008380             ,:cUSQ|_ԍW                               
   839  008390             ,:cUSQ|_ԍX                               
   840  008400             ,:cUSQ|_ԍPO                             
   841  008410             ,:cUSQ|l                                   
   842  008420             ,:cUSQ|`e                             
   843  008430             ,:cUSQ|o^N                               
   844  008440             ,:cUSQ|o^                                 
   845  008450             ,:cUSQ|o^S                               
   846  008460             ,:cUSQ|XVN                               
   847  008470             ,:cUSQ|XV                                 
   848  008480             ,:cUSQ|XV                                   
   849  008490             ,:cUSQ|͒S҃R[h                         
   850  008500             ,:cUSQ|p敪                             
   851  008510             ,:cUSQ|UolR[h                       
   852  008520             ,:cUSQ|Uol_R[h                       
   853  008530             ,:cUSQ|Uol                               
   854  008540             ,:cUSQ|Uol̃Ji)                          
   855  008550     END-EXEC.                                                    
   856  008560*----------------------------------------------------------------*
   857  008570*    ǉmF`(D642UTG_TBL)                         *
   858  008580*----------------------------------------------------------------*
   859  008590     EVALUATE  SQLCODE                                            
   860  008600        WHEN   萔|rpknj                                   
   861  008610*--<       ǉ >                                             
   862  008620           COMPUTE  v|ó|P  =  v|ó|P  +  1   
   863  008630        WHEN   OTHER                                              
   864  008640*--<       ǉG[ >                                       
   865  008650           MOVE     -40               TO  v|G[R[h        
   866  008660           PERFORM  G[菈                                
   867  008670     END-EVALUATE.                                                
   868  008680*----------------------------------------------------------------*
   869  008690*       ڏ  `WJ(D645UTT_TBL)                      *
   870  008700*----------------------------------------------------------------*
   871  008710*                                                                 
   872  008720       EXEC  SQL                                                  
   873  008730        INSERT  INTO  D645UTT_TBL                                 
   874  008740           (  \_ԍ                                        
   875  008750             ,                                                
   876  008760             ,A                                                
   877  008770             ,`ԍ                                            
   878  008780             ,                                                
   879  008790             ,z                                                
   880  008800             ,UolR[h                                  
   881  008810             ,Uol_R[h                                  
   882  008820             ,Uol                                          
   883  008830             ,Uol̃Ji                                      
   884  008840             ,o^N                                          
   885  008850             ,o^                                            
   886  008860             ,o^S                                          
   887  008870             ,XVN                                          
   888  008880             ,XV                                            
   889  008890             ,XV                                              
   890  008900             ,͒S҃R[h                                    
   891  008910             ,`)                                           
   892  008920       VALUES                                                     
   893  008930           (  :cUST|\_ԍ                             
   894  008940             ,:cUST|                                     
   895  008950             ,:cUST|A                                     
   896  008960             ,:cUST|`ԍ                                 
   897  008970             ,:cUST|                                     
Pro*COBOL: Release 9.2.0.1.0 - Production on  Apr 8 16:56:55 2005

Copyright (c) 1982, 2002, Oracle Corporation.  All rights reserved.

   898  008980             ,:cUST|z                                     
   899  008990             ,:cUST|UolR[h                       
   900  009000             ,:cUST|Uol_R[h                       
   901  009010             ,:cUST|Uol                               
   902  009020             ,:cUST|Uol̃Ji                           
   903  009030             ,:cUST|o^N                               
   904  009040             ,:cUST|o^                                 
   905  009050             ,:cUST|o^S                               
   906  009060             ,:cUST|XVN                               
   907  009070             ,:cUST|XV                                 
   908  009080             ,:cUST|XV                                   
   909  009090             ,:cUST|͒S҃R[h                         
   910  009100             ,:cUST|`)                                
   911  009110     END-EXEC.                                                    
   912  009120*                                                                 
   913  009130*----------------------------------------------------------------*
   914  009140*    ǉmF  `WJ(D645UTT_TBL)                   *
   915  009150*----------------------------------------------------------------*
   916  009160     EVALUATE  SQLCODE                                            
   917  009170        WHEN   萔|rpknj                                   
   918  009180*--<       ǉ >                                             
   919  009190           COMPUTE  v|ó|Q  =  v|ó|Q  +  1   
   920  009200        WHEN   OTHER                                              
   921  009210*--<       ǉG[ >                                       
   922  009220           MOVE     -45               TO  v|G[R[h        
   923  009230           PERFORM  G[菈                                
   924  009240     END-EVALUATE.                                                
   925  009250*                                                                 
   926  009260 o͏|dwhs.                                              
   927  009270     EXIT.                                                        
   928  009280******************************************************************
   929  009290*    I                                                    *
   930  009300******************************************************************
   931  009310 I                             SECTION.                    
   932  009320 I|rs`qs.                                            
   933  009330*                                                                 
   934  009340     PERFORM  caN[Y.                                   
   935  009350*                                                                 
   936  009360     PERFORM  caR~bg.                                   
   937  009370*                                                                 
   938  009380     PERFORM  IbZ[Wo.                                 
   939  009390*                                                                 
   940  009400*--< vOI >                                         
   941  009410     MOVE  萔|             TO  PROGRAM-STATUS.         
   942  009420*                                                                 
   943  009430 I|dwhs.                                              
   944  009440     EXIT.                                                        
   945  009450******************************************************************
   946  009460*    IbZ[Wo                                          *
   947  009470******************************************************************
   948  009480 IbZ[Wo                   SECTION.                    
   949  009490 IbZ[Wó|rs`qs.                                  
   950  009500*                                                                 
   951  009510*----------------------------------------------------------------*
   952  009520*    bZ[Wo͏                                      *
   953  009530*----------------------------------------------------------------*
   954  009540     INITIALIZE                       IF-CHOCO001.                
   955  009550     MOVE  "3"                        TO  P|Cxg.     
   956  009560     MOVE  萔|vOhc       TO  P|\[Xhc.       
   957  009570     MOVE  "0"                        TO  P|AR[h.       
   958  009580     MOVE  "LTRFCK"                   TO  P|e[uhc. 
   959  009590     MOVE  "COUNT"                    TO  P|.         
Pro*COBOL: Release 9.2.0.1.0 - Production on  Apr 8 16:56:55 2005

Copyright (c) 1982, 2002, Oracle Corporation.  All rights reserved.

   960  009600     MOVE  v|́|P           TO  P|f[^e.       
   961  009610     MOVE  "t@N^O{Ǎ"                           
   962  009620                                      TO  P|̑bZ[W. 
   963  009630     CALL  CLOCO001                USING  IF-CHOCO001.            
   964  009640                                                                  
   965  009650     INITIALIZE                       IF-CHOCO001.                
   966  009660     MOVE  "3"                        TO  P|Cxg.     
   967  009670     MOVE  萔|vOhc       TO  P|\[Xhc.       
   968  009680     MOVE  "0"                        TO  P|AR[h.       
   969  009690     MOVE  "CISPF001"                 TO  P|e[uhc. 
   970  009700     MOVE  "COUNT"                    TO  P|.         
   971  009710     MOVE  v|́|Q           TO  P|f[^e.       
   972  009720     MOVE  "KpǍ"       TO  P|̑bZ[W. 
   973  009730     CALL  CLOCO001                USING  IF-CHOCO001.            
   974  009740                                                                  
   975  009750*                                                                 
   976  009760     INITIALIZE                       IF-CHOCO001.                
   977  009770     MOVE  "3"                        TO  P|Cxg.     
   978  009780     MOVE  萔|vOhc       TO  P|\[Xhc.       
   979  009790     MOVE  "0"                        TO  P|AR[h.       
   980  009800     MOVE  "D642UTG"                  TO  P|e[uhc. 
   981  009810     MOVE  "COUNT"                    TO  P|.         
   982  009820     MOVE  v|ó|P           TO  P|f[^e.       
   983  009830     MOVE  "`o͌"         TO  P|̑bZ[W. 
   984  009840     CALL  CLOCO001                USING  IF-CHOCO001.            
   985  009850                                                                  
   986  009860     INITIALIZE                       IF-CHOCO001.                
   987  009870     MOVE  "3"                        TO  P|Cxg.     
   988  009880     MOVE  萔|vOhc       TO  P|\[Xhc.       
   989  009890     MOVE  "0"                        TO  P|AR[h.       
   990  009900     MOVE  "D645UTG"                  TO  P|e[uhc. 
   991  009910     MOVE  "COUNT"                    TO  P|.         
   992  009920     MOVE  v|ó|Q           TO  P|f[^e.       
   993  009930     MOVE  "`WJo͌"     TO  P|̑bZ[W. 
   994  009940     CALL  CLOCO001                USING  IF-CHOCO001.            
   995  009950*                                                                 
   996  009960*----------------------------------------------------------------*
   997  009970*    IbZ[Wo                                          *
   998  009980*----------------------------------------------------------------*
   999  009990     INITIALIZE                       IF-CHOCO001.                
  1000  010000     MOVE  "3"                        TO  P|Cxg.     
  1001  010010     MOVE  萔|vOhc       TO  P|\[Xhc.       
  1002  010020     MOVE  "0"                        TO  P|AR[h.       
  1003  010030     MOVE  "END"                      TO  P|.         
  1004  010040     MOVE  萔|vO         TO  P|̑bZ[W. 
  1005  010050     CALL  CLOCO001                USING  IF-CHOCO001.            
  1006  010060*                                                                 
  1007  010070 IbZ[Wó|dwhs.                                    
  1008  010080     EXIT.                                                        
  1009  010090******************************************************************
  1010  010100*    caN[Y                                                *
  1011  010110******************************************************************
  1012  010120 caN[Y                     SECTION.                    
  1013  010130 caN[Y|rs`qs.                                    
  1014  010140*                                                                 
  1015  010150*--< J[\ N[Y >                                          
  1016  010160     EXEC SQL                                                     
  1017  010170        CLOSE  CUR1                                               
  1018  010180     END-EXEC.                                                    
  1019  010190*                                                                 
  1020  010200*--< t@CN[Y >                                           
  1021  010210     CLOSE  ̓t@C.                                         
Pro*COBOL: Release 9.2.0.1.0 - Production on  Apr 8 16:56:55 2005

Copyright (c) 1982, 2002, Oracle Corporation.  All rights reserved.

  1022  010220 caN[Y|dwhs.                                      
  1023  010230     EXIT.                                                        
  1024  010240******************************************************************
  1025  010250*    caR~bg                                            *
  1026  010260******************************************************************
  1027  010270 caR~bg                     SECTION.                    
  1028  010280 caR~bg|rs`qs.                                    
  1029  010290*                                                                 
  1030  010300     EXEC  SQL                                                    
  1031  010310        COMMIT  WORK  RELEASE                                     
  1032  010320     END-EXEC.                                                    
  1033  010330*                                                                 
  1034  010340     INITIALIZE                       IF-CHOCO001.                
  1035  010350     MOVE  "3"                        TO  P|Cxg.     
  1036  010360     MOVE  萔|vOhc       TO  P|\[Xhc.       
  1037  010370     MOVE  "0"                        TO  P|AR[h.       
  1038  010380     MOVE  "COMMIT"                   TO  P|.         
  1039  010390     MOVE  "R~bg{"             TO  P|̑bZ[W. 
  1040  010400     CALL  CLOCO001                USING  IF-CHOCO001.            
  1041  010410*                                                                 
  1042  010420 caR~bg|dwhs.                                      
  1043  010430     EXIT.                                                        
  1044  010440******************************************************************
  1045  010450*    ca[obN                                        *
  1046  010460******************************************************************
  1047  010470 ca[obN                 SECTION.                    
  1048  010480 ca[obN|rs`qs.                                
  1049  010490*                                                                 
  1050  010500     EXEC  SQL                                                    
  1051  010510        ROLLBACK WORK  RELEASE                                    
  1052  010520     END-EXEC.                                                    
  1053  010530*                                                                 
  1054  010540     INITIALIZE                       IF-CHOCO001.                
  1055  010550     MOVE  "1"                        TO  P|Cxg.     
  1056  010560     MOVE  萔|vOhc       TO  P|\[Xhc.       
  1057  010570     MOVE  "9"                        TO  P|AR[h.       
  1058  010580     MOVE  "ROLLBACK"                 TO  P|.         
  1059  010590     MOVE  "[obN{"         TO  P|̑bZ[W. 
  1060  010600     CALL  CLOCO001                USING  IF-CHOCO001.            
  1061  010610*                                                                 
  1062  010620 ca[obN|dwhs.                                  
  1063  010630     EXIT.                                                        
  1064  010640******************************************************************
  1065  010650*    G[                                                  *
  1066  010660******************************************************************
  1067  010670 G[菈                       SECTION.                    
  1068  010680 G[菈|rs`qs.                                      
  1069  010690*                                                                 
  1070  010700     MOVE  "Y"                        TO v|ُI|tO.    
  1071  010710     INITIALIZE                           IF-CHOCO001.            
  1072  010720*                                                                 
  1073  010730     EVALUATE  v|G[R[h                                   
  1074  010740                                                                  
  1075  010750        WHEN  -5                                                  
  1076  010760*--<       Kpt@CI[vG[ >                     
  1077  010770           MOVE  "1"                  TO  P|Cxg      
  1078  010780           MOVE  萔|vOhc TO  P|\[Xhc        
  1079  010790           MOVE  "9"                  TO  P|AR[h        
  1080  010800           MOVE  "CISPF001"           TO  P|e[uhc  
  1081  010810           MOVE  "OPEN"               TO  P|          
  1082  010820           MOVE  t@C         TO  P|f[^e        
  1083  010830           MOVE  "Kpt@CI[vG["               
Pro*COBOL: Release 9.2.0.1.0 - Production on  Apr 8 16:56:55 2005

Copyright (c) 1982, 2002, Oracle Corporation.  All rights reserved.

  1084  010840                                      TO  P|̑bZ[W  
  1085  010850           CALL  CLOCO001          USING  IF-CHOCO001             
  1086  010860                                                                  
  1087  010870        WHEN  -8                                                  
  1088  010880*--<       ǂݍ݃t@CG[ >                         
  1089  010890           MOVE  "1"                  TO  P|Cxg      
  1090  010900           MOVE  萔|vOhc TO  P|\[Xhc        
  1091  010910           MOVE  "9"                  TO  P|AR[h        
  1092  010920           MOVE  "CISPF001"           TO  P|e[uhc  
  1093  010930           MOVE  "READ"               TO  P|          
  1094  010940           MOVE  t@C         TO  P|f[^e        
  1095  010950           MOVE  "t@Cǂݍ݃G["                   
  1096  010960                                      TO  P|̑bZ[W  
  1097  010970           CALL  CLOCO001          USING  IF-CHOCO001             
  1098  010980                                                                  
  1099  010990        WHEN  -10                                                 
  1100  011000*--<       nq`bkdڑs >                                 
  1101  011010           MOVE  "1"                  TO  P|Cxg      
  1102  011020           MOVE  萔|vOhc TO  P|\[Xhc        
  1103  011030           MOVE  "9"                  TO  P|AR[h        
  1104  011040           MOVE  "CONNECT"            TO  P|          
  1105  011050           MOVE  SQLCODE              TO  P|f[^e        
  1106  011060           MOVE  SQLERRMC             TO  P|̑bZ[W  
  1107  011070           CALL  CLOCO001          USING  IF-CHOCO001             
  1108  011080*                                                                 
  1109  011090        WHEN  -20                                                 
  1110  011100*--<       e[uJ[\I[vs >                     
  1111  011110           MOVE  "1"                  TO  P|Cxg      
  1112  011120           MOVE  萔|vOhc TO  P|\[Xhc        
  1113  011130           MOVE  "9"                  TO  P|AR[h        
  1114  011140           MOVE  "LTRFCK"             TO  P|e[uhc  
  1115  011150           MOVE  "OPEN"               TO  P|          
  1116  011160           MOVE  SQLCODE              TO  P|f[^e        
  1117  011170           MOVE  SQLERRMC             TO  P|̑bZ[W  
  1118  011180           CALL  CLOCO001          USING  IF-CHOCO001             
  1119  011190*                                                                 
  1120  011200        WHEN  -30                                                 
  1121  011210*--<       e[uǍs >                                 
  1122  011220           MOVE  "1"                  TO  P|Cxg      
  1123  011230           MOVE  萔|vOhc TO  P|\[Xhc        
  1124  011240           MOVE  "9"                  TO  P|AR[h        
  1125  011250           MOVE  "LTRFCK"             TO  P|e[uhc  
  1126  011260           MOVE  "FETCH"              TO  P|          
  1127  011270           MOVE  SQLCODE              TO  P|f[^e        
  1128  011280           MOVE  SQLERRMC             TO  P|̑bZ[W  
  1129  011290           CALL  CLOCO001          USING  IF-CHOCO001             
  1130  011300*                                                                 
  1131  011310        WHEN  -40                                                 
  1132  011320*--<       ǉmF`(D642UTG_TBL)s >              
  1133  011330           MOVE  "1"                  TO  P|Cxg      
  1134  011340           MOVE  萔|vOhc TO  P|\[Xhc        
  1135  011350           MOVE  "9"                  TO  P|AR[h        
  1136  011360           MOVE  "D642UTG"            TO  P|e[uhc  
  1137  011370           MOVE  "INSERT"             TO  P|          
  1138  011380           MOVE  SQLCODE              TO  P|f[^e        
  1139  011390           MOVE  SQLERRMC             TO  P|̑bZ[W  
  1140  011400           CALL  CLOCO001          USING  IF-CHOCO001             
  1141  011410                                                                  
  1142  011420        WHEN  -45                                                 
  1143  011430*--<       ǉmF  `WJ(D645UTT_TBL)s >        
  1144  011440           MOVE  "1"                  TO  P|Cxg      
  1145  011450           MOVE  萔|vOhc TO  P|\[Xhc        
Pro*COBOL: Release 9.2.0.1.0 - Production on  Apr 8 16:56:55 2005

Copyright (c) 1982, 2002, Oracle Corporation.  All rights reserved.

  1146  011460           MOVE  "9"                  TO  P|AR[h        
  1147  011470           MOVE  "D645UTG"            TO  P|e[uhc  
  1148  011480           MOVE  "INSERT"             TO  P|          
  1149  011490           MOVE  SQLCODE              TO  P|f[^e        
  1150  011500           MOVE  SQLERRMC             TO  P|̑bZ[W  
  1151  011510           CALL  CLOCO001          USING  IF-CHOCO001             
  1152  011520                                                                  
  1153  011530        WHEN  -50                                                 
  1154  011540*--<       VR[ha_R[ho >                 
  1155  011550           MOVE  "2"                  TO  P|Cxg      
  1156  011560           MOVE  萔|vOhc TO  P|\[Xhc        
  1157  011570           MOVE  "9"                  TO  P|AR[h        
  1158  011580           MOVE  "IKOTBL001"          TO  P|e[uhc  
  1159  011590           MOVE  "SELECT"             TO  P|          
  1160  011600           MOVE  SQLCODE              TO  P|f[^e        
  1161  011610           MOVE  SQLERRMC             TO  P|̑bZ[W  
  1162  011620           CALL  CLOCO001          USING  IF-CHOCO001             
  1163  011630           MOVE  "N"                  TO  v|ُI|tO    
  1164  011640                                                                  
  1165  011650        WHEN  -60                                                 
  1166  011660*--<       UolR[haUol_R[h >               
  1167  011670           MOVE  "2"                  TO  P|Cxg      
  1168  011680           MOVE  萔|vOhc TO  P|\[Xhc        
  1169  011690           MOVE  "9"                  TO  P|AR[h        
  1170  011700           MOVE  "IKOTBL001"          TO  P|e[uhc  
  1171  011710           MOVE  "SELECT"             TO  P|          
  1172  011720           MOVE  SQLCODE              TO  P|f[^e        
  1173  011730           MOVE  SQLERRMC             TO  P|̑bZ[W  
  1174  011740           CALL  CLOCO001          USING  IF-CHOCO001             
  1175  011750           MOVE  "N"                  TO  v|ُI|tO    
  1176  011760*                                                                 
  1177  011770        WHEN  OTHER                                               
  1178  011780           MOVE  "N"                  TO  v|ُI|tO    
  1179  011790     END-EVALUATE.                                                
  1180  011800*                                                                 
  1181  011810     IF v|ُI|tO  =  "Y"                              
  1182  011820        PERFORM  ca[obN                             
  1183  011830*                                                                 
  1184  011840        PERFORM  caN[Y                                 
  1185  011850                                                                  
  1186  011860        PERFORM  IbZ[Wo                               
  1187  011870*                                                                 
  1188  011880*--<    vOُĨ^[R[h >                      
  1189  011890        MOVE  萔|ُ          TO  PROGRAM-STATUS          
  1190  011900*                                                                 
  1191  011910        EXIT  PROGRAM                                             
  1192  011920     END-IF.                                                      
  1193  011930*                                                                 
  1194  011940 G[菈|dwhs.                                        
  1195  011950     EXIT.                                                        
  1196  011960******************************************************************
  1197  011970*                  END OF PROGRAM                                *
  1198  011980******************************************************************
t@C: C:\COB97\SOC\COBIS631\COBIS631.PCON[Y
Pro*COBOL: Release 9.2.0.1.0 - Production on  Apr 8 16:56:55 2005

Copyright (c) 1982, 2002, Oracle Corporation.  All rights reserved.


zXgϐ
--------------

01  DB-STRING                                           Charf(20)
  Z:\COB97\COPYLIB_DB\SQLCOM.CBL      3
  C:\COB97\SOC\COBIS631\COBIS631.PCO    259

01  PASSWD                                              Charf(10)
  Z:\COB97\COPYLIB_DB\SQLCOM.CBL      5
  C:\COB97\SOC\COBIS631\COBIS631.PCO    254    258

01  SQLSTATE                                            Charf(5)
  Z:\COB97\COPYLIB_DB\SQLCOM.CBL      2
  C:\COB97\SOC\COBIS631\COBIS631.PCO    253    257    318    344    478    517    768    872   1016   1030   1050

01  USERNAME                                            Charf(10)
  Z:\COB97\COPYLIB_DB\SQLCOM.CBL      4
  C:\COB97\SOC\COBIS631\COBIS631.PCO    254    258

03  cUSQ|TCN OF `                  Decimal(2,0)
  Z:\COB97\COPYLIB_DB\D642UTG.CBL     22
  C:\COB97\SOC\COBIS631\COBIS631.PCO    826

03  cUSQ| OF `                    Charf(8)
  Z:\COB97\COPYLIB_DB\D642UTG.CBL     21
  C:\COB97\SOC\COBIS631\COBIS631.PCO    825

03  cUSQ|_R[h OF `                  Charf(5)
  Z:\COB97\COPYLIB_DB\D642UTG.CBL     10
  C:\COB97\SOC\COBIS631\COBIS631.PCO    816

03  cUSQ|_於 OF `                    Charf(40)
  Z:\COB97\COPYLIB_DB\D642UTG.CBL     12
  C:\COB97\SOC\COBIS631\COBIS631.PCO    817

03  cUSQ|_於̃Ji OF `                Charf(40)
  Z:\COB97\COPYLIB_DB\D642UTG.CBL     13
  C:\COB97\SOC\COBIS631\COBIS631.PCO    818

03  cUSQ|_ԍP OF `                    Charf(10)
  Z:\COB97\COPYLIB_DB\D642UTG.CBL     30
  C:\COB97\SOC\COBIS631\COBIS631.PCO    831

03  cUSQ|_ԍPO OF `                  Charf(10)
  Z:\COB97\COPYLIB_DB\D642UTG.CBL     39
  C:\COB97\SOC\COBIS631\COBIS631.PCO    840

03  cUSQ|_ԍQ OF `                    Charf(10)
  Z:\COB97\COPYLIB_DB\D642UTG.CBL     31
  C:\COB97\SOC\COBIS631\COBIS631.PCO    832

03  cUSQ|_ԍR OF `                    Charf(10)
  Z:\COB97\COPYLIB_DB\D642UTG.CBL     32
  C:\COB97\SOC\COBIS631\COBIS631.PCO    833

03  cUSQ|_ԍS OF `                    Charf(10)
  Z:\COB97\COPYLIB_DB\D642UTG.CBL     33
  C:\COB97\SOC\COBIS631\COBIS631.PCO    834

03  cUSQ|_ԍT OF `                    Charf(10)
  Z:\COB97\COPYLIB_DB\D642UTG.CBL     34
Pro*COBOL: Release 9.2.0.1.0 - Production on  Apr 8 16:56:55 2005

Copyright (c) 1982, 2002, Oracle Corporation.  All rights reserved.

  C:\COB97\SOC\COBIS631\COBIS631.PCO    835

03  cUSQ|_ԍU OF `                    Charf(10)
  Z:\COB97\COPYLIB_DB\D642UTG.CBL     35
  C:\COB97\SOC\COBIS631\COBIS631.PCO    836

03  cUSQ|_ԍV OF `                    Charf(10)
  Z:\COB97\COPYLIB_DB\D642UTG.CBL     36
  C:\COB97\SOC\COBIS631\COBIS631.PCO    837

03  cUSQ|_ԍW OF `                    Charf(10)
  Z:\COB97\COPYLIB_DB\D642UTG.CBL     37
  C:\COB97\SOC\COBIS631\COBIS631.PCO    838

03  cUSQ|_ԍX OF `                    Charf(10)
  Z:\COB97\COPYLIB_DB\D642UTG.CBL     38
  C:\COB97\SOC\COBIS631\COBIS631.PCO    839

03  cUSQ|XV OF `                      Charf(8)
  Z:\COB97\COPYLIB_DB\D642UTG.CBL     48
  C:\COB97\SOC\COBIS631\COBIS631.PCO    847

03  cUSQ|XV OF `                        Charf(8)
  Z:\COB97\COPYLIB_DB\D642UTG.CBL     49
  C:\COB97\SOC\COBIS631\COBIS631.PCO    848

03  cUSQ|XVN OF `                    Charf(8)
  Z:\COB97\COPYLIB_DB\D642UTG.CBL     47
  C:\COB97\SOC\COBIS631\COBIS631.PCO    846

03  cUSQ|xsR[h OF `                Charf(7)
  Z:\COB97\COPYLIB_DB\D642UTG.CBL     28
  C:\COB97\SOC\COBIS631\COBIS631.PCO    830

03  cUSQ|_敪 OF `                    Charf(1)
  Z:\COB97\COPYLIB_DB\D642UTG.CBL     16
  C:\COB97\SOC\COBIS631\COBIS631.PCO    820

03  cUSQ|R[h OF `                  Charf(9)
  Z:\COB97\COPYLIB_DB\D642UTG.CBL      8
  C:\COB97\SOC\COBIS631\COBIS631.PCO    815

03  cUSQ| OF `                        Charf(8)
  Z:\COB97\COPYLIB_DB\D642UTG.CBL     18
  C:\COB97\SOC\COBIS631\COBIS631.PCO    822

03  cUSQ|旧sR[h OF `                Charf(7)
  Z:\COB97\COPYLIB_DB\D642UTG.CBL     26
  C:\COB97\SOC\COBIS631\COBIS631.PCO    829

03  cUSQ|` OF `                      Charf(1)
  Z:\COB97\COPYLIB_DB\D642UTG.CBL     20
  C:\COB97\SOC\COBIS631\COBIS631.PCO    824

03  cUSQ|` OF `                      Charf(1)
  Z:\COB97\COPYLIB_DB\D642UTG.CBL     17
  C:\COB97\SOC\COBIS631\COBIS631.PCO    821

03  cUSQ|`e OF `                  Charf(1)
  Z:\COB97\COPYLIB_DB\D642UTG.CBL     42
  C:\COB97\SOC\COBIS631\COBIS631.PCO    842

Pro*COBOL: Release 9.2.0.1.0 - Production on  Apr 8 16:56:55 2005

Copyright (c) 1982, 2002, Oracle Corporation.  All rights reserved.

03  cUSQ|` OF `                      Decimal(4,0)
  Z:\COB97\COPYLIB_DB\D642UTG.CBL     25
  C:\COB97\SOC\COBIS631\COBIS631.PCO    828

03  cUSQ|Uol_R[h OF `            Charf(5)
  Z:\COB97\COPYLIB_DB\D642UTG.CBL     56
  C:\COB97\SOC\COBIS631\COBIS631.PCO    852

03  cUSQ|UolR[h OF `            Charf(9)
  Z:\COB97\COPYLIB_DB\D642UTG.CBL     54
  C:\COB97\SOC\COBIS631\COBIS631.PCO    851

03  cUSQ|Uol OF `                    Charf(40)
  Z:\COB97\COPYLIB_DB\D642UTG.CBL     58
  C:\COB97\SOC\COBIS631\COBIS631.PCO    853

03  cUSQ|Uol̃Ji OF `                Charf(40)
  Z:\COB97\COPYLIB_DB\D642UTG.CBL     59
  C:\COB97\SOC\COBIS631\COBIS631.PCO    854

03  cUSQ|vz OF `                    Decimal(13,0)
  Z:\COB97\COPYLIB_DB\D642UTG.CBL     24
  C:\COB97\SOC\COBIS631\COBIS631.PCO    827

03  cUSQ| OF `                          Decimal(3,0)
  Z:\COB97\COPYLIB_DB\D642UTG.CBL      7
  C:\COB97\SOC\COBIS631\COBIS631.PCO    814

03  cUSQ|\_ԍ OF `                  Charf(10)
  Z:\COB97\COPYLIB_DB\D642UTG.CBL      5
  C:\COB97\SOC\COBIS631\COBIS631.PCO    813

03  cUSQ|`[s OF `                    Charf(8)
  Z:\COB97\COPYLIB_DB\D642UTG.CBL     19
  C:\COB97\SOC\COBIS631\COBIS631.PCO    823

03  cUSQ|o^ OF `                      Charf(8)
  Z:\COB97\COPYLIB_DB\D642UTG.CBL     45
  C:\COB97\SOC\COBIS631\COBIS631.PCO    844

03  cUSQ|o^S OF `                    Charf(8)
  Z:\COB97\COPYLIB_DB\D642UTG.CBL     46
  C:\COB97\SOC\COBIS631\COBIS631.PCO    845

03  cUSQ|o^N OF `                    Charf(8)
  Z:\COB97\COPYLIB_DB\D642UTG.CBL     44
  C:\COB97\SOC\COBIS631\COBIS631.PCO    843

03  cUSQ|͒S҃R[h OF `              Charf(8)
  Z:\COB97\COPYLIB_DB\D642UTG.CBL     50
  C:\COB97\SOC\COBIS631\COBIS631.PCO    849

03  cUSQ|p敪 OF `                  Charf(1)
  Z:\COB97\COPYLIB_DB\D642UTG.CBL     52
  C:\COB97\SOC\COBIS631\COBIS631.PCO    850

03  cUSQ|l OF `                        Charf(40)
  Z:\COB97\COPYLIB_DB\D642UTG.CBL     41
  C:\COB97\SOC\COBIS631\COBIS631.PCO    841

03  cUSQ|XR[h OF `                    Charf(4)
  Z:\COB97\COPYLIB_DB\D642UTG.CBL     15
Pro*COBOL: Release 9.2.0.1.0 - Production on  Apr 8 16:56:55 2005

Copyright (c) 1982, 2002, Oracle Corporation.  All rights reserved.

  C:\COB97\SOC\COBIS631\COBIS631.PCO    819

03  cUST| OF `WJ                      Charf(8)
  Z:\COB97\COPYLIB_DB\D645UTT.CBL     10
  C:\COB97\SOC\COBIS631\COBIS631.PCO    897

03  cUST|z OF `WJ                      Decimal(13,0)
  Z:\COB97\COPYLIB_DB\D645UTT.CBL     11
  C:\COB97\SOC\COBIS631\COBIS631.PCO    898

03  cUST|XV OF `WJ                  Charf(8)
  Z:\COB97\COPYLIB_DB\D645UTT.CBL     23
  C:\COB97\SOC\COBIS631\COBIS631.PCO    907

03  cUST|XV OF `WJ                    Charf(8)
  Z:\COB97\COPYLIB_DB\D645UTT.CBL     24
  C:\COB97\SOC\COBIS631\COBIS631.PCO    908

03  cUST|XVN OF `WJ                Charf(8)
  Z:\COB97\COPYLIB_DB\D645UTT.CBL     22
  C:\COB97\SOC\COBIS631\COBIS631.PCO    906

03  cUST|` OF `WJ                  Charf(1)
  Z:\COB97\COPYLIB_DB\D645UTT.CBL     27
  C:\COB97\SOC\COBIS631\COBIS631.PCO    910

03  cUST|`ԍ OF `WJ                  Charf(10)
  Z:\COB97\COPYLIB_DB\D645UTT.CBL      9
  C:\COB97\SOC\COBIS631\COBIS631.PCO    896

03  cUST|Uol_R[h OF `            Charf(5)
  Z:\COB97\COPYLIB_DB\D645UTT.CBL     14
  C:\COB97\SOC\COBIS631\COBIS631.PCO    900

03  cUST|UolR[h OF `            Charf(9)
  Z:\COB97\COPYLIB_DB\D645UTT.CBL     12
  C:\COB97\SOC\COBIS631\COBIS631.PCO    899

03  cUST|Uol OF `WJ                Charf(40)
  Z:\COB97\COPYLIB_DB\D645UTT.CBL     16
  C:\COB97\SOC\COBIS631\COBIS631.PCO    901

03  cUST|Uol̃Ji OF `WJ            Charf(40)
  Z:\COB97\COPYLIB_DB\D645UTT.CBL     17
  C:\COB97\SOC\COBIS631\COBIS631.PCO    902

03  cUST| OF `WJ                      Decimal(3,0)
  Z:\COB97\COPYLIB_DB\D645UTT.CBL      7
  C:\COB97\SOC\COBIS631\COBIS631.PCO    894

03  cUST|\_ԍ OF `WJ              Charf(10)
  Z:\COB97\COPYLIB_DB\D645UTT.CBL      5
  C:\COB97\SOC\COBIS631\COBIS631.PCO    893

03  cUST|o^ OF `WJ                  Charf(8)
  Z:\COB97\COPYLIB_DB\D645UTT.CBL     20
  C:\COB97\SOC\COBIS631\COBIS631.PCO    904

03  cUST|o^S OF `WJ                Charf(8)
  Z:\COB97\COPYLIB_DB\D645UTT.CBL     21
  C:\COB97\SOC\COBIS631\COBIS631.PCO    905

Pro*COBOL: Release 9.2.0.1.0 - Production on  Apr 8 16:56:55 2005

Copyright (c) 1982, 2002, Oracle Corporation.  All rights reserved.

03  cUST|o^N OF `WJ                Charf(8)
  Z:\COB97\COPYLIB_DB\D645UTT.CBL     19
  C:\COB97\SOC\COBIS631\COBIS631.PCO    903

03  cUST|͒S҃R[h OF `W            Charf(8)
  Z:\COB97\COPYLIB_DB\D645UTT.CBL     25
  C:\COB97\SOC\COBIS631\COBIS631.PCO    909

03  cUST|A OF `WJ                      Decimal(3,0)
  Z:\COB97\COPYLIB_DB\D645UTT.CBL      8
  C:\COB97\SOC\COBIS631\COBIS631.PCO    895

01  ksqebj|[U[R[h                        Charf(8)
  Z:\COB97\COPYLIB_DB\LTRFCK.CBL      5
  C:\COB97\SOC\COBIS631\COBIS631.PCO    347    485

01  ksqebj|zʋz                              Decimal(13,0)
  Z:\COB97\COPYLIB_DB\LTRFCK.CBL     15
  C:\COB97\SOC\COBIS631\COBIS631.PCO    354    361

01  ksqebj|                                  Charf(7)
  Z:\COB97\COPYLIB_DB\LTRFCK.CBL     17
  C:\COB97\SOC\COBIS631\COBIS631.PCO    360

01  ksqebj|sR[h                            Charf(7)
  Z:\COB97\COPYLIB_DB\LTRFCK.CBL     18
  C:\COB97\SOC\COBIS631\COBIS631.PCO    355

01  ksqebj|_ԍ                              Charf(9)
  Z:\COB97\COPYLIB_DB\LTRFCK.CBL      4
  C:\COB97\SOC\COBIS631\COBIS631.PCO    346

01  ksqebj|҃R[h                        Charf(8)
  Z:\COB97\COPYLIB_DB\LTRFCK.CBL     31
  C:\COB97\SOC\COBIS631\COBIS631.PCO    357    524

01  ksqebj|ƏR[h                          Decimal(4,0)
  Z:\COB97\COPYLIB_DB\LTRFCK.CBL      7
  C:\COB97\SOC\COBIS631\COBIS631.PCO    350

01  ksqebj|s                                Charf(7)
  Z:\COB97\COPYLIB_DB\LTRFCK.CBL     10
  C:\COB97\SOC\COBIS631\COBIS631.PCO    351

01  ksqebs|xl                              Charf(60)
  Z:\COB97\COPYLIB_DB\LTRFCT.CBL     29
  C:\COB97\SOC\COBIS631\COBIS631.PCO    358

01  ksqebs|sR[h                        Charf(7)
  Z:\COB97\COPYLIB_DB\LTRFCT.CBL     28
  C:\COB97\SOC\COBIS631\COBIS631.PCO    356

01  ksqebs|`                              Decimal(1,0)
  Z:\COB97\COPYLIB_DB\LTRFCT.CBL     26
  C:\COB97\SOC\COBIS631\COBIS631.PCO    352

01  ksqebs|`ԍ                              Charf(10)
  Z:\COB97\COPYLIB_DB\LTRFCT.CBL     25
  C:\COB97\SOC\COBIS631\COBIS631.PCO    359

01  ksqebs|                              Charf(7)
  Z:\COB97\COPYLIB_DB\LTRFCT.CBL      5
Pro*COBOL: Release 9.2.0.1.0 - Production on  Apr 8 16:56:55 2005

Copyright (c) 1982, 2002, Oracle Corporation.  All rights reserved.

  C:\COB97\SOC\COBIS631\COBIS631.PCO    353

01  ksqsqh|搳̎於̃J            Charf(60)
  Z:\COB97\COPYLIB_DB\LTRTRI.CBL     21
  C:\COB97\SOC\COBIS631\COBIS631.PCO    349

01  ksqsqh|搳̎於̊            Charf(40)
  Z:\COB97\COPYLIB_DB\LTRTRI.CBL     20
  C:\COB97\SOC\COBIS631\COBIS631.PCO    348

01  vr|_R[h                                  Charf(5)
  C:\COB97\SOC\COBIS631\COBIS631.PCO     92    482

01  vr|Uol_R[h                            Charf(5)
  C:\COB97\SOC\COBIS631\COBIS631.PCO     94    521

01  vr|UolR[h                            Charf(9)
  C:\COB97\SOC\COBIS631\COBIS631.PCO     93    520

01  vr|VR[h                                Charf(9)
  C:\COB97\SOC\COBIS631\COBIS631.PCO     91    481

01  vr|ړIbc                                      Charf(1)
  C:\COB97\SOC\COBIS631\COBIS631.PCO     89    487    526

Pro*COBOL: Release 9.2.0.1.0 - Production on  Apr 8 16:56:55 2005

Copyright (c) 1982, 2002, Oracle Corporation.  All rights reserved.


SQLʎq
---------------

CUR1                  CURSOR                        
  C:\COB97\SOC\COBIS631\COBIS631.PCO    287    319    345   1017    287

Pro*COBOL: Release 9.2.0.1.0 - Production on  Apr 8 16:56:55 2005

Copyright (c) 1982, 2002, Oracle Corporation.  All rights reserved.



                              vRpCEIvV
-------------------------------------------------------------------------------
IvV   ݂̐ݒl         ݒ
-------------------------------------------------------------------------------
asacc             no                ftHg                                  
assume_sqlcode    no                ftHg                                  
auto_connect      no                ftHg                                  
close_on_commit   yes               mode                                        
comp5             yes               D:\oracle\precomp\admin\pcbcfg.cfg          
config            default config    ftHg                                  
date_format       local             ftHg                                  
dbms              native            ftHg                                  
declare_section   yes               mode                                        
define            *Ȃ*            ftHg                                  
dynamic           ansi              mode                                        
end_of_fetch      100               mode                                        
eol_padding       yes               ftHg                                  
errors            yes               ftHg                                  
fips              no                ftHg                                  
format            ansi              ftHg                                  
hold_cursor       no                ftHg                                  
host              cobol             ftHg                                  
iname             C:\COB97\SOC\COBISR}hCCO                            
include           Z:\COB97\COPYLIB  D:\oracle\precomp\admin\pcbcfg.cfg          
                  Z:\COB97\COPYLIB_DD:\oracle\precomp\admin\pcbcfg.cfg          
                  *Ȃ*            D:\oracle\precomp\admin\pcbcfg.cfg          
ireclen           132               D:\oracle\precomp\admin\pcbcfg.cfg          
litdelim          quote             ftHg                                  
lname             *Ȃ*            ftHg                                  
lreclen           132               ftHg                                  
ltype             long              ftHg                                  
maxliteral        160               D:\oracle\precomp\admin\pcbcfg.cfg          
maxopencursors    10                ftHg                                  
mode              ANSI              D:\oracle\precomp\admin\pcbcfg.cfg          
nested            yes               ftHg                                  
nls_local         yes               D:\oracle\precomp\admin\pcbcfg.cfg          
oname             COBIS631.COB      R}hC                              
oraca             no                ftHg                                  
oreclen           80                ftHg                                  
pagelen           66                ftHg                                  
picx              charf             ftHg                                  
prefetch          1                 ftHg                                  
release_cursor    no                ftHg                                  
select_error      yes               ftHg                                  
sqlcheck          FULL              D:\oracle\precomp\admin\pcbcfg.cfg          
threads           no                ftHg                                  
type_code         ansi              mode                                        
unsafe_null       no                ftHg                                  
userid            CUILIN/CUILIN@FIP D:\oracle\precomp\admin\pcbcfg.cfg          
varchar           no                ftHg                                  
xref              yes               ftHg                                  
Pro*COBOL: Release 9.2.0.1.0 - Production on  Apr 8 16:56:55 2005

Copyright (c) 1982, 2002, Oracle Corporation.  All rights reserved.


v\
----------

^[ER[h: 0
dv Ił̃bZ[W: 0
dv Wł̃bZ[W: 0
dv Eł̃bZ[W: 0
dv Fł̃bZ[W: 0
̓C̐: 1464
錾ꂽzXgϐ̐: 233
J[\̐: 1
̐: 0
gpő僁[(oCg): 346534
